ARM GAS  C:\Users\Rafael\AppData\Local\Temp\ccwrXay6.s 			page 1


   1              		.cpu cortex-m0
   2              		.fpu softvfp
   3              		.eabi_attribute 20, 1
   4              		.eabi_attribute 21, 1
   5              		.eabi_attribute 23, 3
   6              		.eabi_attribute 24, 1
   7              		.eabi_attribute 25, 1
   8              		.eabi_attribute 26, 1
   9              		.eabi_attribute 30, 1
  10              		.eabi_attribute 34, 0
  11              		.eabi_attribute 18, 4
  12              		.code	16
  13              		.file	"BLE_1.c"
  14              		.text
  15              	.Ltext0:
  16              		.cfi_sections	.debug_frame
  17              		.section	.text.CyBle_ChangeAdLocalName,"ax",%progbits
  18              		.align	2
  19              		.code	16
  20              		.thumb_func
  21              		.type	CyBle_ChangeAdLocalName, %function
  22              	CyBle_ChangeAdLocalName:
  23              	.LFB11:
  24              		.file 1 ".\\Generated_Source\\PSoC4\\BLE_1.c"
   1:.\Generated_Source\PSoC4/BLE_1.c **** /***************************************************************************//**
   2:.\Generated_Source\PSoC4/BLE_1.c **** * \file CYBLE.c
   3:.\Generated_Source\PSoC4/BLE_1.c **** * \version 3.10
   4:.\Generated_Source\PSoC4/BLE_1.c **** * 
   5:.\Generated_Source\PSoC4/BLE_1.c **** * \brief
   6:.\Generated_Source\PSoC4/BLE_1.c **** *  This file contains the source code for the Common APIs of the BLE Component.
   7:.\Generated_Source\PSoC4/BLE_1.c **** * 
   8:.\Generated_Source\PSoC4/BLE_1.c **** ********************************************************************************
   9:.\Generated_Source\PSoC4/BLE_1.c **** * \copyright
  10:.\Generated_Source\PSoC4/BLE_1.c **** * Copyright 2014-2016, Cypress Semiconductor Corporation.  All rights reserved.
  11:.\Generated_Source\PSoC4/BLE_1.c **** * You may use this file only in accordance with the license, terms, conditions,
  12:.\Generated_Source\PSoC4/BLE_1.c **** * disclaimers, and limitations in the end user license agreement accompanying
  13:.\Generated_Source\PSoC4/BLE_1.c **** * the software package with which this file was provided.
  14:.\Generated_Source\PSoC4/BLE_1.c **** *******************************************************************************/
  15:.\Generated_Source\PSoC4/BLE_1.c **** 
  16:.\Generated_Source\PSoC4/BLE_1.c **** #include "BLE_1_eventHandler.h"
  17:.\Generated_Source\PSoC4/BLE_1.c **** #include "BLE_1_HAL_PVT.h"
  18:.\Generated_Source\PSoC4/BLE_1.c **** #include <stdlib.h>
  19:.\Generated_Source\PSoC4/BLE_1.c **** 
  20:.\Generated_Source\PSoC4/BLE_1.c **** 
  21:.\Generated_Source\PSoC4/BLE_1.c **** /***************************************
  22:.\Generated_Source\PSoC4/BLE_1.c **** * Function Prototypes
  23:.\Generated_Source\PSoC4/BLE_1.c **** ***************************************/
  24:.\Generated_Source\PSoC4/BLE_1.c **** 
  25:.\Generated_Source\PSoC4/BLE_1.c **** #if(CYBLE_GATT_ROLE_SERVER)
  26:.\Generated_Source\PSoC4/BLE_1.c ****     #if(CYBLE_GAP_ROLE_PERIPHERAL)
  27:.\Generated_Source\PSoC4/BLE_1.c ****         static void CyBle_ChangeAdLocalName(const char8 name[], uint8 dest);
  28:.\Generated_Source\PSoC4/BLE_1.c ****     #endif /* (CYBLE_GAP_ROLE_PERIPHERAL) */
  29:.\Generated_Source\PSoC4/BLE_1.c **** #endif /* (CYBLE_GATT_ROLE_SERVER) */
  30:.\Generated_Source\PSoC4/BLE_1.c ****     
  31:.\Generated_Source\PSoC4/BLE_1.c **** 
  32:.\Generated_Source\PSoC4/BLE_1.c **** /***************************************
  33:.\Generated_Source\PSoC4/BLE_1.c **** * Global Variables
ARM GAS  C:\Users\Rafael\AppData\Local\Temp\ccwrXay6.s 			page 2


  34:.\Generated_Source\PSoC4/BLE_1.c **** ***************************************/
  35:.\Generated_Source\PSoC4/BLE_1.c **** 
  36:.\Generated_Source\PSoC4/BLE_1.c **** /* Indicates whether the BLE has been initialized. The variable is initialized to
  37:.\Generated_Source\PSoC4/BLE_1.c ****    0 and set to 1 the first time CyBle_Start() is called. This allows the component
  38:.\Generated_Source\PSoC4/BLE_1.c ****    to restart without reinitialization after the first call to the CyBle_Start() 
  39:.\Generated_Source\PSoC4/BLE_1.c ****    routine. If reinitialization of the component is required, the variable should 
  40:.\Generated_Source\PSoC4/BLE_1.c ****    be set to 0 before the CyBle_Start() routine is called. Alternatively, the BLE
  41:.\Generated_Source\PSoC4/BLE_1.c ****    can be reinitialized by calling the CyBle_Init() function.
  42:.\Generated_Source\PSoC4/BLE_1.c **** */
  43:.\Generated_Source\PSoC4/BLE_1.c **** uint8  cyBle_initVar = 0u;
  44:.\Generated_Source\PSoC4/BLE_1.c **** 
  45:.\Generated_Source\PSoC4/BLE_1.c **** /* Allocate RAM memory for stack. This buffer could be reused by application when 
  46:.\Generated_Source\PSoC4/BLE_1.c ****    BLE component is stopped. For export mode buffer is allocated in heap.
  47:.\Generated_Source\PSoC4/BLE_1.c **** */
  48:.\Generated_Source\PSoC4/BLE_1.c **** #if(CYBLE_SHARING_MODE_EXPORT)
  49:.\Generated_Source\PSoC4/BLE_1.c ****     
  50:.\Generated_Source\PSoC4/BLE_1.c **** uint8 *cyBle_stackMemoryRam = NULL;
  51:.\Generated_Source\PSoC4/BLE_1.c **** 
  52:.\Generated_Source\PSoC4/BLE_1.c **** #else
  53:.\Generated_Source\PSoC4/BLE_1.c **** 
  54:.\Generated_Source\PSoC4/BLE_1.c **** CYBLE_CYALIGNED_BEGIN CY_NOINIT uint8 cyBle_stackMemoryRam[CYBLE_STACK_RAM_SIZE] CYBLE_CYALIGNED_EN
  55:.\Generated_Source\PSoC4/BLE_1.c **** 
  56:.\Generated_Source\PSoC4/BLE_1.c **** #endif  /* CYBLE_SHARING_MODE_EXPORT */
  57:.\Generated_Source\PSoC4/BLE_1.c **** 
  58:.\Generated_Source\PSoC4/BLE_1.c **** #if(CYBLE_GAP_ROLE_PERIPHERAL || CYBLE_GAP_ROLE_BROADCASTER)
  59:.\Generated_Source\PSoC4/BLE_1.c **** 
  60:.\Generated_Source\PSoC4/BLE_1.c **** CYBLE_GAPP_DISC_PARAM_T cyBle_discoveryParam =
  61:.\Generated_Source\PSoC4/BLE_1.c **** {
  62:.\Generated_Source\PSoC4/BLE_1.c ****     0x0020u,    /* uint16 advertising_interval_min */
  63:.\Generated_Source\PSoC4/BLE_1.c ****     0x0030u,    /* uint16 advertising_interval_max */
  64:.\Generated_Source\PSoC4/BLE_1.c ****     CYBLE_GAPP_CONNECTABLE_UNDIRECTED_ADV, /* uint8 advertising_type */
  65:.\Generated_Source\PSoC4/BLE_1.c ****     0x00u,      /* uint8 own_addr_type */
  66:.\Generated_Source\PSoC4/BLE_1.c ****     0x00u,      /* uint8 direct_addr_type */
  67:.\Generated_Source\PSoC4/BLE_1.c ****     {0x00u, 0x00u, 0x00u, 0x50u, 0xA0u, 0x00u}, /* uint8* direct_addr */
  68:.\Generated_Source\PSoC4/BLE_1.c ****     0x07u,      /* uint8 advertising_channel_map */
  69:.\Generated_Source\PSoC4/BLE_1.c ****     0x00u,      /* uint8 advertising_filter_policy */
  70:.\Generated_Source\PSoC4/BLE_1.c **** };
  71:.\Generated_Source\PSoC4/BLE_1.c **** 
  72:.\Generated_Source\PSoC4/BLE_1.c **** CYBLE_GAPP_DISC_DATA_T cyBle_discoveryData =
  73:.\Generated_Source\PSoC4/BLE_1.c **** {
  74:.\Generated_Source\PSoC4/BLE_1.c ****     { 0x02u, 0x01u, 0x06u, 0x09u, 0x09u, 0x42u, 0x69u,
  75:.\Generated_Source\PSoC4/BLE_1.c ****     0x6Fu, 0x53u, 0x65u, 0x6Eu, 0x73u, 0x65u, 0x11u, 0x07u,
  76:.\Generated_Source\PSoC4/BLE_1.c ****     0xF0u, 0x34u, 0x9Bu, 0x5Fu, 0x80u, 0x00u, 0x00u, 0x80u,
  77:.\Generated_Source\PSoC4/BLE_1.c ****     0x00u, 0x10u, 0x00u, 0x00u, 0xB5u, 0xCAu, 0x00u, 0x00u }, /* uint8 advertising_data[CYBLE_MAX_A
  78:.\Generated_Source\PSoC4/BLE_1.c ****     0x1Fu,      /* uint8 adv_data_length */
  79:.\Generated_Source\PSoC4/BLE_1.c **** };
  80:.\Generated_Source\PSoC4/BLE_1.c **** 
  81:.\Generated_Source\PSoC4/BLE_1.c **** CYBLE_GAPP_SCAN_RSP_DATA_T cyBle_scanRspData =
  82:.\Generated_Source\PSoC4/BLE_1.c **** {
  83:.\Generated_Source\PSoC4/BLE_1.c ****     { 0x00u, 0x00u, 0x00u, 0x00u, 0x00u, 0x00u, 0x00u,
  84:.\Generated_Source\PSoC4/BLE_1.c ****     0x00u, 0x00u, 0x00u, 0x00u, 0x00u, 0x00u, 0x00u, 0x00u,
  85:.\Generated_Source\PSoC4/BLE_1.c ****     0x00u, 0x00u, 0x00u, 0x00u, 0x00u, 0x00u, 0x00u, 0x00u,
  86:.\Generated_Source\PSoC4/BLE_1.c ****     0x00u, 0x00u, 0x00u, 0x00u, 0x00u, 0x00u, 0x00u, 0x00u }, /* uint8 scan_rsp_data[CYBLE_MAX_SCAN
  87:.\Generated_Source\PSoC4/BLE_1.c ****     0x00u,      /* uint8 scan_rsp_data_length */
  88:.\Generated_Source\PSoC4/BLE_1.c **** };
  89:.\Generated_Source\PSoC4/BLE_1.c **** 
  90:.\Generated_Source\PSoC4/BLE_1.c **** /* This variable of type CYBLE_GAPP_DISC_MODE_INFO_T is present only when 
ARM GAS  C:\Users\Rafael\AppData\Local\Temp\ccwrXay6.s 			page 3


  91:.\Generated_Source\PSoC4/BLE_1.c ****    the BLE component is configured for Peripheral GAP role or Central and 
  92:.\Generated_Source\PSoC4/BLE_1.c ****    Peripheral GAP role. It contains the Advertisement settings and also the 
  93:.\Generated_Source\PSoC4/BLE_1.c ****    Advertisement and Scan response data parameters entered in the customizer.
  94:.\Generated_Source\PSoC4/BLE_1.c ****    This variable can be used by advanced users to change Advertisement settings,
  95:.\Generated_Source\PSoC4/BLE_1.c ****    Advertisement or Scan response data in runtime. 
  96:.\Generated_Source\PSoC4/BLE_1.c **** */
  97:.\Generated_Source\PSoC4/BLE_1.c **** CYBLE_GAPP_DISC_MODE_INFO_T cyBle_discoveryModeInfo =
  98:.\Generated_Source\PSoC4/BLE_1.c **** {
  99:.\Generated_Source\PSoC4/BLE_1.c ****     0x02u,      /* uint8 discMode */
 100:.\Generated_Source\PSoC4/BLE_1.c ****     &cyBle_discoveryParam,
 101:.\Generated_Source\PSoC4/BLE_1.c ****     &cyBle_discoveryData,
 102:.\Generated_Source\PSoC4/BLE_1.c ****     &cyBle_scanRspData,
 103:.\Generated_Source\PSoC4/BLE_1.c ****     0x001Eu,    /* uint16 advTo */
 104:.\Generated_Source\PSoC4/BLE_1.c **** };
 105:.\Generated_Source\PSoC4/BLE_1.c **** 
 106:.\Generated_Source\PSoC4/BLE_1.c **** 
 107:.\Generated_Source\PSoC4/BLE_1.c **** #endif /* CYBLE_GAP_ROLE_PERIPHERAL || CYBLE_GAP_ROLE_BROADCASTER */
 108:.\Generated_Source\PSoC4/BLE_1.c **** 
 109:.\Generated_Source\PSoC4/BLE_1.c **** #if(CYBLE_GAP_ROLE_CENTRAL)
 110:.\Generated_Source\PSoC4/BLE_1.c ****     
 111:.\Generated_Source\PSoC4/BLE_1.c **** CYBLE_GAPC_CONN_PARAM_T cyBle_connectionParameters;
 112:.\Generated_Source\PSoC4/BLE_1.c **** 
 113:.\Generated_Source\PSoC4/BLE_1.c **** /* Connecting timeout is set to 30 seconds in CyBle_Init function. 
 114:.\Generated_Source\PSoC4/BLE_1.c ****    Not zero value starts timer in CyBle_GapcConnectDevice API.
 115:.\Generated_Source\PSoC4/BLE_1.c **** */
 116:.\Generated_Source\PSoC4/BLE_1.c **** uint16 cyBle_connectingTimeout;
 117:.\Generated_Source\PSoC4/BLE_1.c ****     
 118:.\Generated_Source\PSoC4/BLE_1.c **** #endif /* CYBLE_GAP_ROLE_CENTRAL */
 119:.\Generated_Source\PSoC4/BLE_1.c **** 
 120:.\Generated_Source\PSoC4/BLE_1.c **** #if(CYBLE_GAP_ROLE_CENTRAL || CYBLE_GAP_ROLE_OBSERVER)
 121:.\Generated_Source\PSoC4/BLE_1.c ****     
 122:.\Generated_Source\PSoC4/BLE_1.c **** 
 123:.\Generated_Source\PSoC4/BLE_1.c ****     
 124:.\Generated_Source\PSoC4/BLE_1.c **** #endif /* CYBLE_GAP_ROLE_CENTRAL || CYBLE_GAP_ROLE_OBSERVER */
 125:.\Generated_Source\PSoC4/BLE_1.c **** 
 126:.\Generated_Source\PSoC4/BLE_1.c **** #if((CYBLE_GAP_ROLE_PERIPHERAL || CYBLE_GAP_ROLE_CENTRAL) && (CYBLE_BONDING_REQUIREMENT == CYBLE_BO
 127:.\Generated_Source\PSoC4/BLE_1.c **** 
 128:.\Generated_Source\PSoC4/BLE_1.c **** uint8 cyBle_peerBonding;
 129:.\Generated_Source\PSoC4/BLE_1.c **** uint8 cyBle_pendingFlashWrite;
 130:.\Generated_Source\PSoC4/BLE_1.c ****     
 131:.\Generated_Source\PSoC4/BLE_1.c **** #if(CYBLE_GATT_DB_CCCD_COUNT != 0u)
 132:.\Generated_Source\PSoC4/BLE_1.c ****     static uint8 cyBle_pendingFlashClearCccdHandle;
 133:.\Generated_Source\PSoC4/BLE_1.c **** #endif /* CYBLE_GATT_DB_CCCD_COUNT != 0u */
 134:.\Generated_Source\PSoC4/BLE_1.c ****     
 135:.\Generated_Source\PSoC4/BLE_1.c **** #endif  /* (CYBLE_BONDING_REQUIREMENT == CYBLE_BONDING_YES) */
 136:.\Generated_Source\PSoC4/BLE_1.c **** 
 137:.\Generated_Source\PSoC4/BLE_1.c **** CYBLE_CALLBACK_T CyBle_ApplCallback;
 138:.\Generated_Source\PSoC4/BLE_1.c **** CYBLE_GAP_BD_ADDR_T cyBle_deviceAddress = {{0x00u, 0x00u, 0x00u, 0x50u, 0xA0u, 0x00u}, 0x00u };
 139:.\Generated_Source\PSoC4/BLE_1.c **** CYBLE_GAP_BD_ADDR_T * cyBle_sflashDeviceAddress = CYBLE_SFLASH_DEVICE_ADDRESS_PTR;
 140:.\Generated_Source\PSoC4/BLE_1.c **** 
 141:.\Generated_Source\PSoC4/BLE_1.c **** 
 142:.\Generated_Source\PSoC4/BLE_1.c **** /******************************************************************************
 143:.\Generated_Source\PSoC4/BLE_1.c **** * Function Name: CyBle_Init
 144:.\Generated_Source\PSoC4/BLE_1.c **** ***************************************************************************//**
 145:.\Generated_Source\PSoC4/BLE_1.c **** *
 146:.\Generated_Source\PSoC4/BLE_1.c **** *   Initializes the component with the parameters set in the customizer.
 147:.\Generated_Source\PSoC4/BLE_1.c **** * 
ARM GAS  C:\Users\Rafael\AppData\Local\Temp\ccwrXay6.s 			page 4


 148:.\Generated_Source\PSoC4/BLE_1.c **** *  \return
 149:.\Generated_Source\PSoC4/BLE_1.c **** *   None
 150:.\Generated_Source\PSoC4/BLE_1.c **** * 
 151:.\Generated_Source\PSoC4/BLE_1.c **** ******************************************************************************/
 152:.\Generated_Source\PSoC4/BLE_1.c **** void CyBle_Init(void)
 153:.\Generated_Source\PSoC4/BLE_1.c **** {
 154:.\Generated_Source\PSoC4/BLE_1.c ****     cyBle_eventHandlerFlag = 0u;
 155:.\Generated_Source\PSoC4/BLE_1.c ****     cyBle_busyStatus = CYBLE_STACK_STATE_FREE;
 156:.\Generated_Source\PSoC4/BLE_1.c **** 
 157:.\Generated_Source\PSoC4/BLE_1.c ****     #if(CYBLE_GAP_ROLE_PERIPHERAL || CYBLE_GAP_ROLE_BROADCASTER) 
 158:.\Generated_Source\PSoC4/BLE_1.c ****         cyBle_advertisingIntervalType = CYBLE_ADVERTISING_FAST; 
 159:.\Generated_Source\PSoC4/BLE_1.c ****     #endif /* (CYBLE_GAP_ROLE_PERIPHERAL || CYBLE_GAP_ROLE_BROADCASTER)  */
 160:.\Generated_Source\PSoC4/BLE_1.c ****     #if(CYBLE_GAP_ROLE_CENTRAL || CYBLE_GAP_ROLE_OBSERVER)
 161:.\Generated_Source\PSoC4/BLE_1.c ****         cyBle_scanningIntervalType = CYBLE_SCANNING_FAST; 
 162:.\Generated_Source\PSoC4/BLE_1.c ****     #endif /* (CYBLE_GAP_ROLE_CENTRAL || CYBLE_GAP_ROLE_OBSERVER) */
 163:.\Generated_Source\PSoC4/BLE_1.c ****         
 164:.\Generated_Source\PSoC4/BLE_1.c ****     /* Init default connection parameters. 
 165:.\Generated_Source\PSoC4/BLE_1.c ****        Application may change it before initiating a connection */
 166:.\Generated_Source\PSoC4/BLE_1.c ****     #if(CYBLE_GAP_ROLE_CENTRAL)
 167:.\Generated_Source\PSoC4/BLE_1.c ****         cyBle_connectionParameters.scanIntv = cyBle_discoveryInfo.scanIntv;
 168:.\Generated_Source\PSoC4/BLE_1.c ****         cyBle_connectionParameters.scanWindow = cyBle_discoveryInfo.scanWindow;
 169:.\Generated_Source\PSoC4/BLE_1.c ****         cyBle_connectionParameters.ownAddrType = cyBle_discoveryInfo.ownAddrType;
 170:.\Generated_Source\PSoC4/BLE_1.c ****         cyBle_connectionParameters.initiatorFilterPolicy = cyBle_discoveryInfo.scanFilterPolicy;
 171:.\Generated_Source\PSoC4/BLE_1.c ****         cyBle_connectionParameters.connIntvMin = CYBLE_GAPC_CONNECTION_INTERVAL_MIN;
 172:.\Generated_Source\PSoC4/BLE_1.c ****         cyBle_connectionParameters.connIntvMax = CYBLE_GAPC_CONNECTION_INTERVAL_MAX;
 173:.\Generated_Source\PSoC4/BLE_1.c ****         cyBle_connectionParameters.connLatency = CYBLE_GAPC_CONNECTION_SLAVE_LATENCY;
 174:.\Generated_Source\PSoC4/BLE_1.c ****         cyBle_connectionParameters.supervisionTO = CYBLE_GAPC_CONNECTION_TIME_OUT;
 175:.\Generated_Source\PSoC4/BLE_1.c ****         cyBle_connectionParameters.minCeLength = 0x0000u;
 176:.\Generated_Source\PSoC4/BLE_1.c ****         cyBle_connectionParameters.maxCeLength = 0xFFFFu;
 177:.\Generated_Source\PSoC4/BLE_1.c ****         
 178:.\Generated_Source\PSoC4/BLE_1.c ****         cyBle_connectingTimeout = CYBLE_GAPC_CONNECTING_TIMEOUT;
 179:.\Generated_Source\PSoC4/BLE_1.c ****     #endif /* CYBLE_GAP_ROLE_CENTRAL */
 180:.\Generated_Source\PSoC4/BLE_1.c **** 
 181:.\Generated_Source\PSoC4/BLE_1.c ****     CyBle_ServiceInit();
 182:.\Generated_Source\PSoC4/BLE_1.c **** 
 183:.\Generated_Source\PSoC4/BLE_1.c ****     #if((CYBLE_GAP_ROLE_PERIPHERAL || CYBLE_GAP_ROLE_CENTRAL) && (CYBLE_BONDING_REQUIREMENT == CYBL
 184:.\Generated_Source\PSoC4/BLE_1.c ****         cyBle_pendingFlashWrite = 0u;
 185:.\Generated_Source\PSoC4/BLE_1.c ****         cyBle_peerBonding = CYBLE_GAP_BONDING_NONE;
 186:.\Generated_Source\PSoC4/BLE_1.c ****     #endif  /* (CYBLE_BONDING_REQUIREMENT == CYBLE_BONDING_YES) */
 187:.\Generated_Source\PSoC4/BLE_1.c **** 
 188:.\Generated_Source\PSoC4/BLE_1.c **** }
 189:.\Generated_Source\PSoC4/BLE_1.c **** 
 190:.\Generated_Source\PSoC4/BLE_1.c **** 
 191:.\Generated_Source\PSoC4/BLE_1.c **** /******************************************************************************
 192:.\Generated_Source\PSoC4/BLE_1.c **** * Function Name: CyBle_ServiceInit
 193:.\Generated_Source\PSoC4/BLE_1.c **** ***************************************************************************//**
 194:.\Generated_Source\PSoC4/BLE_1.c **** * 
 195:.\Generated_Source\PSoC4/BLE_1.c **** *  Initializes all included services.
 196:.\Generated_Source\PSoC4/BLE_1.c **** * 
 197:.\Generated_Source\PSoC4/BLE_1.c **** * \return
 198:.\Generated_Source\PSoC4/BLE_1.c **** *  None
 199:.\Generated_Source\PSoC4/BLE_1.c **** * 
 200:.\Generated_Source\PSoC4/BLE_1.c **** ******************************************************************************/
 201:.\Generated_Source\PSoC4/BLE_1.c **** void CyBle_ServiceInit(void)
 202:.\Generated_Source\PSoC4/BLE_1.c **** {
 203:.\Generated_Source\PSoC4/BLE_1.c ****     #if(CYBLE_GATT_ROLE_CLIENT)
 204:.\Generated_Source\PSoC4/BLE_1.c ****         /* Check service range before clearing to support partial discovery */
ARM GAS  C:\Users\Rafael\AppData\Local\Temp\ccwrXay6.s 			page 5


 205:.\Generated_Source\PSoC4/BLE_1.c ****         if(cyBle_serverInfo[CYBLE_SRVI_GAP].range.startHandle == CYBLE_GATT_INVALID_ATTR_HANDLE_VAL
 206:.\Generated_Source\PSoC4/BLE_1.c ****         {
 207:.\Generated_Source\PSoC4/BLE_1.c ****             (void)memset(&cyBle_gapc, 0, sizeof(cyBle_gapc));
 208:.\Generated_Source\PSoC4/BLE_1.c ****         }
 209:.\Generated_Source\PSoC4/BLE_1.c ****         if(cyBle_serverInfo[CYBLE_SRVI_GATT].range.startHandle == CYBLE_GATT_INVALID_ATTR_HANDLE_VA
 210:.\Generated_Source\PSoC4/BLE_1.c ****         {
 211:.\Generated_Source\PSoC4/BLE_1.c ****             (void)memset(&cyBle_gattc, 0, sizeof(cyBle_gattc));
 212:.\Generated_Source\PSoC4/BLE_1.c ****         }
 213:.\Generated_Source\PSoC4/BLE_1.c ****     #endif /* CYBLE_GATT_ROLE_CLIENT */
 214:.\Generated_Source\PSoC4/BLE_1.c ****     
 215:.\Generated_Source\PSoC4/BLE_1.c **** 	#ifdef CYBLE_ANCS
 216:.\Generated_Source\PSoC4/BLE_1.c ****         CyBle_AncsInit();
 217:.\Generated_Source\PSoC4/BLE_1.c ****     #endif /* CYBLE_ANCS */
 218:.\Generated_Source\PSoC4/BLE_1.c **** 	
 219:.\Generated_Source\PSoC4/BLE_1.c ****     #ifdef CYBLE_ANS
 220:.\Generated_Source\PSoC4/BLE_1.c ****         CyBle_AnsInit();
 221:.\Generated_Source\PSoC4/BLE_1.c ****     #endif /* CYBLE_ANS */
 222:.\Generated_Source\PSoC4/BLE_1.c ****     
 223:.\Generated_Source\PSoC4/BLE_1.c ****     #ifdef CYBLE_BAS
 224:.\Generated_Source\PSoC4/BLE_1.c ****         CyBle_BasInit();
 225:.\Generated_Source\PSoC4/BLE_1.c ****     #endif /* CYBLE_BAS */
 226:.\Generated_Source\PSoC4/BLE_1.c ****     
 227:.\Generated_Source\PSoC4/BLE_1.c ****     #ifdef CYBLE_BCS
 228:.\Generated_Source\PSoC4/BLE_1.c ****         CyBle_BcsInit();
 229:.\Generated_Source\PSoC4/BLE_1.c ****     #endif /* CYBLE_BCS */
 230:.\Generated_Source\PSoC4/BLE_1.c **** 
 231:.\Generated_Source\PSoC4/BLE_1.c ****     #ifdef CYBLE_BLS
 232:.\Generated_Source\PSoC4/BLE_1.c ****         CyBle_BlsInit();
 233:.\Generated_Source\PSoC4/BLE_1.c ****     #endif /* CYBLE_BLS */
 234:.\Generated_Source\PSoC4/BLE_1.c ****     
 235:.\Generated_Source\PSoC4/BLE_1.c ****     #ifdef CYBLE_BMS
 236:.\Generated_Source\PSoC4/BLE_1.c ****         CyBle_BmsInit();
 237:.\Generated_Source\PSoC4/BLE_1.c ****     #endif /* CYBLE_BMS */
 238:.\Generated_Source\PSoC4/BLE_1.c ****     
 239:.\Generated_Source\PSoC4/BLE_1.c ****     #ifdef CYBLE_CGMS
 240:.\Generated_Source\PSoC4/BLE_1.c ****         CyBle_CgmsInit();
 241:.\Generated_Source\PSoC4/BLE_1.c ****     #endif /* CYBLE_CGMS */
 242:.\Generated_Source\PSoC4/BLE_1.c **** 
 243:.\Generated_Source\PSoC4/BLE_1.c ****     #ifdef CYBLE_CPS
 244:.\Generated_Source\PSoC4/BLE_1.c ****         CyBle_CpsInit();
 245:.\Generated_Source\PSoC4/BLE_1.c ****     #endif /* CYBLE_CPS */
 246:.\Generated_Source\PSoC4/BLE_1.c **** 
 247:.\Generated_Source\PSoC4/BLE_1.c ****     #ifdef CYBLE_CSCS
 248:.\Generated_Source\PSoC4/BLE_1.c ****         CyBle_CscsInit();
 249:.\Generated_Source\PSoC4/BLE_1.c ****     #endif /* CYBLE_CSCS */
 250:.\Generated_Source\PSoC4/BLE_1.c ****     
 251:.\Generated_Source\PSoC4/BLE_1.c ****     #ifdef CYBLE_CTS
 252:.\Generated_Source\PSoC4/BLE_1.c ****         CyBle_CtsInit();
 253:.\Generated_Source\PSoC4/BLE_1.c ****     #endif /* CYBLE_CTS */
 254:.\Generated_Source\PSoC4/BLE_1.c **** 
 255:.\Generated_Source\PSoC4/BLE_1.c ****     #ifdef CYBLE_CUSTOM
 256:.\Generated_Source\PSoC4/BLE_1.c ****         CyBle_CustomInit();
 257:.\Generated_Source\PSoC4/BLE_1.c ****     #endif /* CYBLE_CUSTOM */
 258:.\Generated_Source\PSoC4/BLE_1.c **** 
 259:.\Generated_Source\PSoC4/BLE_1.c ****     #ifdef CYBLE_DIS
 260:.\Generated_Source\PSoC4/BLE_1.c ****         CyBle_DisInit();
 261:.\Generated_Source\PSoC4/BLE_1.c ****     #endif /* CYBLE_DIS */
ARM GAS  C:\Users\Rafael\AppData\Local\Temp\ccwrXay6.s 			page 6


 262:.\Generated_Source\PSoC4/BLE_1.c **** 
 263:.\Generated_Source\PSoC4/BLE_1.c ****     #ifdef CYBLE_ESS
 264:.\Generated_Source\PSoC4/BLE_1.c ****         CyBle_EssInit();
 265:.\Generated_Source\PSoC4/BLE_1.c ****     #endif /* CYBLE_ESS */
 266:.\Generated_Source\PSoC4/BLE_1.c ****     
 267:.\Generated_Source\PSoC4/BLE_1.c ****     #ifdef CYBLE_GLS
 268:.\Generated_Source\PSoC4/BLE_1.c ****         CyBle_GlsInit();
 269:.\Generated_Source\PSoC4/BLE_1.c ****     #endif /* CYBLE_GLS */
 270:.\Generated_Source\PSoC4/BLE_1.c ****     
 271:.\Generated_Source\PSoC4/BLE_1.c ****     #ifdef CYBLE_HIDS
 272:.\Generated_Source\PSoC4/BLE_1.c ****         CyBle_HidsInit();
 273:.\Generated_Source\PSoC4/BLE_1.c ****     #endif /* CYBLE_HIDS */
 274:.\Generated_Source\PSoC4/BLE_1.c **** 
 275:.\Generated_Source\PSoC4/BLE_1.c ****     #ifdef CYBLE_HPS
 276:.\Generated_Source\PSoC4/BLE_1.c ****         CyBle_HpsInit();
 277:.\Generated_Source\PSoC4/BLE_1.c ****     #endif /* CYBLE_HPS */
 278:.\Generated_Source\PSoC4/BLE_1.c **** 
 279:.\Generated_Source\PSoC4/BLE_1.c ****     #ifdef CYBLE_HRS
 280:.\Generated_Source\PSoC4/BLE_1.c ****         CyBle_HrsInit();
 281:.\Generated_Source\PSoC4/BLE_1.c ****     #endif /* CYBLE_HRS */
 282:.\Generated_Source\PSoC4/BLE_1.c ****     
 283:.\Generated_Source\PSoC4/BLE_1.c ****     #ifdef CYBLE_HTS
 284:.\Generated_Source\PSoC4/BLE_1.c ****         CyBle_HtsInit();
 285:.\Generated_Source\PSoC4/BLE_1.c ****     #endif /* CYBLE_RSCS */
 286:.\Generated_Source\PSoC4/BLE_1.c **** 
 287:.\Generated_Source\PSoC4/BLE_1.c ****     #ifdef CYBLE_IAS
 288:.\Generated_Source\PSoC4/BLE_1.c ****         CyBle_IasInit();
 289:.\Generated_Source\PSoC4/BLE_1.c ****     #endif /* CYBLE_IAS */
 290:.\Generated_Source\PSoC4/BLE_1.c **** 
 291:.\Generated_Source\PSoC4/BLE_1.c ****     #ifdef CYBLE_IPS
 292:.\Generated_Source\PSoC4/BLE_1.c ****         CyBle_IpsInit();
 293:.\Generated_Source\PSoC4/BLE_1.c ****     #endif /* CYBLE_IPS */
 294:.\Generated_Source\PSoC4/BLE_1.c ****     
 295:.\Generated_Source\PSoC4/BLE_1.c ****     #ifdef CYBLE_LLS
 296:.\Generated_Source\PSoC4/BLE_1.c ****         CyBle_LlsInit();
 297:.\Generated_Source\PSoC4/BLE_1.c ****     #endif /* CYBLE_LLS */
 298:.\Generated_Source\PSoC4/BLE_1.c **** 
 299:.\Generated_Source\PSoC4/BLE_1.c ****     #ifdef CYBLE_LNS
 300:.\Generated_Source\PSoC4/BLE_1.c ****         CyBle_LnsInit();
 301:.\Generated_Source\PSoC4/BLE_1.c ****     #endif /* CYBLE_LNS */
 302:.\Generated_Source\PSoC4/BLE_1.c ****     
 303:.\Generated_Source\PSoC4/BLE_1.c ****     #ifdef CYBLE_NDCS
 304:.\Generated_Source\PSoC4/BLE_1.c ****         CyBle_NdcsInit();
 305:.\Generated_Source\PSoC4/BLE_1.c ****     #endif /* CYBLE_NDCS */
 306:.\Generated_Source\PSoC4/BLE_1.c ****     
 307:.\Generated_Source\PSoC4/BLE_1.c ****     #ifdef CYBLE_PASS
 308:.\Generated_Source\PSoC4/BLE_1.c ****         CyBle_PassInit();
 309:.\Generated_Source\PSoC4/BLE_1.c ****     #endif /* CYBLE_PASS */
 310:.\Generated_Source\PSoC4/BLE_1.c ****     
 311:.\Generated_Source\PSoC4/BLE_1.c ****     #ifdef CYBLE_RSCS
 312:.\Generated_Source\PSoC4/BLE_1.c ****         CyBle_RscsInit();
 313:.\Generated_Source\PSoC4/BLE_1.c ****     #endif /* CYBLE_RSCS */
 314:.\Generated_Source\PSoC4/BLE_1.c **** 
 315:.\Generated_Source\PSoC4/BLE_1.c ****     #ifdef CYBLE_RTUS
 316:.\Generated_Source\PSoC4/BLE_1.c ****         CyBle_RtusInit();
 317:.\Generated_Source\PSoC4/BLE_1.c ****     #endif /* CYBLE_RTUS */
 318:.\Generated_Source\PSoC4/BLE_1.c **** 
ARM GAS  C:\Users\Rafael\AppData\Local\Temp\ccwrXay6.s 			page 7


 319:.\Generated_Source\PSoC4/BLE_1.c ****     #ifdef CYBLE_SCPS
 320:.\Generated_Source\PSoC4/BLE_1.c ****         CyBle_ScpsInit();
 321:.\Generated_Source\PSoC4/BLE_1.c ****     #endif /* CYBLE_SCPS */
 322:.\Generated_Source\PSoC4/BLE_1.c ****     
 323:.\Generated_Source\PSoC4/BLE_1.c ****     #ifdef CYBLE_TPS
 324:.\Generated_Source\PSoC4/BLE_1.c ****         CyBle_TpsInit();
 325:.\Generated_Source\PSoC4/BLE_1.c ****     #endif /* CYBLE_TPS */
 326:.\Generated_Source\PSoC4/BLE_1.c ****     
 327:.\Generated_Source\PSoC4/BLE_1.c ****     #ifdef CYBLE_UDS
 328:.\Generated_Source\PSoC4/BLE_1.c ****         CyBle_UdsInit();
 329:.\Generated_Source\PSoC4/BLE_1.c ****     #endif /* CYBLE_UDS */
 330:.\Generated_Source\PSoC4/BLE_1.c **** 
 331:.\Generated_Source\PSoC4/BLE_1.c ****     #ifdef CYBLE_WPTS
 332:.\Generated_Source\PSoC4/BLE_1.c ****         CyBle_WptsInit();
 333:.\Generated_Source\PSoC4/BLE_1.c ****     #endif /* CYBLE_WPTS */
 334:.\Generated_Source\PSoC4/BLE_1.c **** 
 335:.\Generated_Source\PSoC4/BLE_1.c ****     #ifdef CYBLE_WSS
 336:.\Generated_Source\PSoC4/BLE_1.c ****         CyBle_WssInit();
 337:.\Generated_Source\PSoC4/BLE_1.c ****     #endif /* CYBLE_WSS */
 338:.\Generated_Source\PSoC4/BLE_1.c **** }
 339:.\Generated_Source\PSoC4/BLE_1.c **** 
 340:.\Generated_Source\PSoC4/BLE_1.c **** 
 341:.\Generated_Source\PSoC4/BLE_1.c **** /******************************************************************************
 342:.\Generated_Source\PSoC4/BLE_1.c **** * Function Name: CyBle_Start
 343:.\Generated_Source\PSoC4/BLE_1.c **** ***************************************************************************//**
 344:.\Generated_Source\PSoC4/BLE_1.c **** * 
 345:.\Generated_Source\PSoC4/BLE_1.c **** *  This function initializes the BLE Stack, which consists of the BLE Stack 
 346:.\Generated_Source\PSoC4/BLE_1.c **** *  Manager, BLE Controller, and BLE Host modules. It takes care of initializing
 347:.\Generated_Source\PSoC4/BLE_1.c **** *  the Profile layer, schedulers, Timer and other platform related
 348:.\Generated_Source\PSoC4/BLE_1.c **** *  resources required for the BLE component. It also registers the callback 
 349:.\Generated_Source\PSoC4/BLE_1.c **** *  function for BLE events that will be registered in the BLE stack.
 350:.\Generated_Source\PSoC4/BLE_1.c **** * 
 351:.\Generated_Source\PSoC4/BLE_1.c **** *  Note that this function does not reset the BLE Stack.
 352:.\Generated_Source\PSoC4/BLE_1.c **** * 
 353:.\Generated_Source\PSoC4/BLE_1.c **** *  For HCI-Mode of operation, this function will not initialize the BLE Host 
 354:.\Generated_Source\PSoC4/BLE_1.c **** *  module.
 355:.\Generated_Source\PSoC4/BLE_1.c **** * 
 356:.\Generated_Source\PSoC4/BLE_1.c **** *  Calling this function results in the generation of CYBLE_EVT_STACK_ON event
 357:.\Generated_Source\PSoC4/BLE_1.c **** *  on successful initialization of the BLE Stack.
 358:.\Generated_Source\PSoC4/BLE_1.c **** * 
 359:.\Generated_Source\PSoC4/BLE_1.c **** *  \param callbackFunc: Event callback function to receive events from BLE stack.
 360:.\Generated_Source\PSoC4/BLE_1.c **** *   CYBLE_CALLBACK_T is a function pointer type.
 361:.\Generated_Source\PSoC4/BLE_1.c **** * 
 362:.\Generated_Source\PSoC4/BLE_1.c **** * \return
 363:.\Generated_Source\PSoC4/BLE_1.c **** *  CYBLE_API_RESULT_T : Return value indicates if the function succeeded or 
 364:.\Generated_Source\PSoC4/BLE_1.c **** *  failed. Following are the possible error codes.
 365:.\Generated_Source\PSoC4/BLE_1.c **** * 
 366:.\Generated_Source\PSoC4/BLE_1.c **** *   <table>
 367:.\Generated_Source\PSoC4/BLE_1.c **** *  	  <tr>
 368:.\Generated_Source\PSoC4/BLE_1.c **** *       <th>Error codes</th>
 369:.\Generated_Source\PSoC4/BLE_1.c **** *       <th>Description</th>
 370:.\Generated_Source\PSoC4/BLE_1.c **** *     </tr>
 371:.\Generated_Source\PSoC4/BLE_1.c **** *     <tr>
 372:.\Generated_Source\PSoC4/BLE_1.c **** *       <td>CYBLE_ERROR_OK</td>
 373:.\Generated_Source\PSoC4/BLE_1.c **** *       <td>On successful operation.</td>
 374:.\Generated_Source\PSoC4/BLE_1.c **** *     </tr>
 375:.\Generated_Source\PSoC4/BLE_1.c **** *     <tr>
ARM GAS  C:\Users\Rafael\AppData\Local\Temp\ccwrXay6.s 			page 8


 376:.\Generated_Source\PSoC4/BLE_1.c **** *       <td>CYBLE_ERROR_INVALID_PARAMETER</td>
 377:.\Generated_Source\PSoC4/BLE_1.c **** *       <td>On passing a NULL pointer to the function when the BLE stack is not built in HCI mode. 
 378:.\Generated_Source\PSoC4/BLE_1.c **** *			CYBLE_ERROR_INVALID_PARAMETER is never returned in HCI mode.</td>
 379:.\Generated_Source\PSoC4/BLE_1.c **** *     </tr>
 380:.\Generated_Source\PSoC4/BLE_1.c **** *     <tr>
 381:.\Generated_Source\PSoC4/BLE_1.c **** *       <td>CYBLE_ERROR_REPEATED_ATTEMPTS</td>
 382:.\Generated_Source\PSoC4/BLE_1.c **** *       <td>On invoking this function more than once without calling CyBle_Shutdown() 
 383:.\Generated_Source\PSoC4/BLE_1.c **** *           function between calls to this function.</td>
 384:.\Generated_Source\PSoC4/BLE_1.c **** *     </tr>
 385:.\Generated_Source\PSoC4/BLE_1.c **** *     <tr>
 386:.\Generated_Source\PSoC4/BLE_1.c **** *       <td>CYBLE_ERROR_MEMORY_ALLOCATION_FAILED</td>
 387:.\Generated_Source\PSoC4/BLE_1.c **** *       <td>There is insufficient memory available.</td>
 388:.\Generated_Source\PSoC4/BLE_1.c **** *     </tr>
 389:.\Generated_Source\PSoC4/BLE_1.c **** *   </table>
 390:.\Generated_Source\PSoC4/BLE_1.c **** * 
 391:.\Generated_Source\PSoC4/BLE_1.c **** *  \globalvars
 392:.\Generated_Source\PSoC4/BLE_1.c **** *   The CyBle_initVar variable is used to indicate initial
 393:.\Generated_Source\PSoC4/BLE_1.c **** *   configuration of this component. The variable is initialized to zero (0u)
 394:.\Generated_Source\PSoC4/BLE_1.c **** *   and set to one (1u) the first time CyBle_Start() is called. This
 395:.\Generated_Source\PSoC4/BLE_1.c **** *   allows for component initialization without re-initialization in all
 396:.\Generated_Source\PSoC4/BLE_1.c **** *   subsequent calls to the CyBle_Start() routine.
 397:.\Generated_Source\PSoC4/BLE_1.c **** * 
 398:.\Generated_Source\PSoC4/BLE_1.c **** ******************************************************************************/
 399:.\Generated_Source\PSoC4/BLE_1.c **** CYBLE_API_RESULT_T CyBle_Start(CYBLE_CALLBACK_T callbackFunc)
 400:.\Generated_Source\PSoC4/BLE_1.c **** {
 401:.\Generated_Source\PSoC4/BLE_1.c ****     CYBLE_API_RESULT_T apiResult = CYBLE_ERROR_OK;
 402:.\Generated_Source\PSoC4/BLE_1.c ****     
 403:.\Generated_Source\PSoC4/BLE_1.c ****     #if(CYBLE_MODE_PROFILE)
 404:.\Generated_Source\PSoC4/BLE_1.c ****     
 405:.\Generated_Source\PSoC4/BLE_1.c ****     CYBLE_STK_APP_DATA_BUFF_T cyBle_stackDataBuff[CYBLE_STACK_APP_MIN_POOL] = 
 406:.\Generated_Source\PSoC4/BLE_1.c ****     {
 407:.\Generated_Source\PSoC4/BLE_1.c ****         {CYBLE_GATT_MTU_PLUS_L2CAP_MEM_EXT, CYBLE_GATT_MTU_BUFF_COUNT + CYBLE_GATT_MAX_ATTR_BUFF_CO
 408:.\Generated_Source\PSoC4/BLE_1.c ****         {CYBLE_L2CAP_PSM_PLUS_L2CAP_MEM_EXT, CYBLE_L2CAP_PSM_COUNT},
 409:.\Generated_Source\PSoC4/BLE_1.c ****         {CYBLE_L2CAP_CBFC_PLUS_L2CAP_MEM_EXT, 2u * CYBLE_L2CAP_LOGICAL_CHANNEL_COUNT},
 410:.\Generated_Source\PSoC4/BLE_1.c ****         {CYBLE_L2CAP_MTU_PLUS_L2CAP_MEM_EXT, CYBLE_L2CAP_LOGICAL_CHANNEL_COUNT},
 411:.\Generated_Source\PSoC4/BLE_1.c ****         {CYBLE_L2CAP_MPS_PLUS_L2CAP_MEM_EXT, CYBLE_L2CAP_LOGICAL_CHANNEL_COUNT * (CYBLE_L2CAP_MTU_M
 412:.\Generated_Source\PSoC4/BLE_1.c ****     }; 
 413:.\Generated_Source\PSoC4/BLE_1.c **** 
 414:.\Generated_Source\PSoC4/BLE_1.c ****     #endif /* CYBLE_MODE_PROFILE */
 415:.\Generated_Source\PSoC4/BLE_1.c ****     
 416:.\Generated_Source\PSoC4/BLE_1.c ****     /* If not initialized then initialize all the required hardware and software */
 417:.\Generated_Source\PSoC4/BLE_1.c ****     if(cyBle_initVar == 0u)
 418:.\Generated_Source\PSoC4/BLE_1.c ****     {
 419:.\Generated_Source\PSoC4/BLE_1.c ****         CyBle_Init();
 420:.\Generated_Source\PSoC4/BLE_1.c ****         cyBle_initVar = 1u;
 421:.\Generated_Source\PSoC4/BLE_1.c ****     }
 422:.\Generated_Source\PSoC4/BLE_1.c ****     
 423:.\Generated_Source\PSoC4/BLE_1.c ****     if(callbackFunc != NULL)
 424:.\Generated_Source\PSoC4/BLE_1.c ****     {
 425:.\Generated_Source\PSoC4/BLE_1.c ****         CyBle_ApplCallback = callbackFunc;
 426:.\Generated_Source\PSoC4/BLE_1.c ****         
 427:.\Generated_Source\PSoC4/BLE_1.c ****     #if(CYBLE_SHARING_MODE_EXPORT)
 428:.\Generated_Source\PSoC4/BLE_1.c ****         if(cyBle_stackMemoryRam == NULL)
 429:.\Generated_Source\PSoC4/BLE_1.c ****         {
 430:.\Generated_Source\PSoC4/BLE_1.c ****             cyBle_stackMemoryRam = (uint8 *)malloc(CYBLE_STACK_RAM_SIZE);
 431:.\Generated_Source\PSoC4/BLE_1.c ****             if(cyBle_stackMemoryRam == NULL)
 432:.\Generated_Source\PSoC4/BLE_1.c ****             {
ARM GAS  C:\Users\Rafael\AppData\Local\Temp\ccwrXay6.s 			page 9


 433:.\Generated_Source\PSoC4/BLE_1.c ****                 apiResult = CYBLE_ERROR_MEMORY_ALLOCATION_FAILED;
 434:.\Generated_Source\PSoC4/BLE_1.c ****             }
 435:.\Generated_Source\PSoC4/BLE_1.c ****         }
 436:.\Generated_Source\PSoC4/BLE_1.c ****     #endif /* CYBLE_SHARING_MODE_EXPORT */
 437:.\Generated_Source\PSoC4/BLE_1.c ****         if(apiResult == CYBLE_ERROR_OK)
 438:.\Generated_Source\PSoC4/BLE_1.c ****         {
 439:.\Generated_Source\PSoC4/BLE_1.c ****             CYBLE_DLE_CONFIG_PARAM_T dleConfigParams;
 440:.\Generated_Source\PSoC4/BLE_1.c ****             CYBLE_PRIVACY_1_2_CONFIG_PARAM_T privacyConfigParams;
 441:.\Generated_Source\PSoC4/BLE_1.c ****             CYBLE_STACK_CONFIG_PARAM_T stackConfig;
 442:.\Generated_Source\PSoC4/BLE_1.c ****             uint16 featureHeapReq;
 443:.\Generated_Source\PSoC4/BLE_1.c ****             
 444:.\Generated_Source\PSoC4/BLE_1.c ****             stackConfig.privacyConfig = &privacyConfigParams;
 445:.\Generated_Source\PSoC4/BLE_1.c ****             stackConfig.dleConfig = &dleConfigParams;
 446:.\Generated_Source\PSoC4/BLE_1.c ****             
 447:.\Generated_Source\PSoC4/BLE_1.c ****             /* Configure default BLE 4.1 features and enabled 4.2 features */
 448:.\Generated_Source\PSoC4/BLE_1.c ****             stackConfig.feature_mask = CYBLE_DLE_FEATURE | CYBLE_LL_PRIVACY_FEATURE | 
 449:.\Generated_Source\PSoC4/BLE_1.c ****                                        CYBLE_SECURE_CONN_FEATURE;
 450:.\Generated_Source\PSoC4/BLE_1.c **** 
 451:.\Generated_Source\PSoC4/BLE_1.c ****             /* Configure DLE */
 452:.\Generated_Source\PSoC4/BLE_1.c ****             dleConfigParams.dleMaxTxCapability = CYBLE_LL_MAX_TX_PAYLOAD_SIZE;
 453:.\Generated_Source\PSoC4/BLE_1.c ****             dleConfigParams.dleMaxRxCapability = CYBLE_LL_MAX_RX_PAYLOAD_SIZE;
 454:.\Generated_Source\PSoC4/BLE_1.c ****             dleConfigParams.dleNumTxBuffer = CYBLE_LL_DEFAULT_NUM_ACL_TX_PACKETS;
 455:.\Generated_Source\PSoC4/BLE_1.c ****         #if(CYBLE_DLE_FEATURE_ENABLED)
 456:.\Generated_Source\PSoC4/BLE_1.c ****             CyBle_EnableDleFeature();              /* Enable DLE code in stack */
 457:.\Generated_Source\PSoC4/BLE_1.c ****         #endif /* CYBLE_DLE_FEATURE_ENABLED */
 458:.\Generated_Source\PSoC4/BLE_1.c ****         
 459:.\Generated_Source\PSoC4/BLE_1.c ****             /* Configure LL Privacy */
 460:.\Generated_Source\PSoC4/BLE_1.c ****             privacyConfigParams.resolvingListSize = CYBLE_MAX_RESOLVABLE_DEVICES;
 461:.\Generated_Source\PSoC4/BLE_1.c ****         #if(CYBLE_LL_PRIVACY_FEATURE_ENABLED)
 462:.\Generated_Source\PSoC4/BLE_1.c ****             CyBle_EnablePrivacyFeature();          /* Enable LL Privacy code in stack */
 463:.\Generated_Source\PSoC4/BLE_1.c ****         #endif /* CYBLE_LL_PRIVACY_FEATURE_ENABLED */
 464:.\Generated_Source\PSoC4/BLE_1.c **** 
 465:.\Generated_Source\PSoC4/BLE_1.c ****             apiResult = CyBle_StackSetFeatureConfig(&stackConfig, &featureHeapReq);
 466:.\Generated_Source\PSoC4/BLE_1.c ****             }
 467:.\Generated_Source\PSoC4/BLE_1.c ****     
 468:.\Generated_Source\PSoC4/BLE_1.c ****         if(apiResult == CYBLE_ERROR_OK)
 469:.\Generated_Source\PSoC4/BLE_1.c ****         {
 470:.\Generated_Source\PSoC4/BLE_1.c ****             
 471:.\Generated_Source\PSoC4/BLE_1.c ****         #if(CYBLE_MODE_PROFILE)
 472:.\Generated_Source\PSoC4/BLE_1.c ****             #if(CYBLE_BONDING_REQUIREMENT == CYBLE_BONDING_YES)
 473:.\Generated_Source\PSoC4/BLE_1.c ****                 apiResult = CyBle_StackInit(&CyBle_EventHandler, cyBle_stackMemoryRam, 
 474:.\Generated_Source\PSoC4/BLE_1.c ****                     CYBLE_STACK_RAM_SIZE - CYBLE_GATT_PREPARE_WRITE_BUFF_LEN, cyBle_stackDataBuff, 
 475:.\Generated_Source\PSoC4/BLE_1.c ****                     CYBLE_STACK_APP_MIN_POOL, cyBle_flashStorage.stackFlashptr, CYBLE_STACK_FLASH_S
 476:.\Generated_Source\PSoC4/BLE_1.c ****             #else
 477:.\Generated_Source\PSoC4/BLE_1.c ****                 apiResult = CyBle_StackInit(&CyBle_EventHandler, cyBle_stackMemoryRam, 
 478:.\Generated_Source\PSoC4/BLE_1.c ****                     CYBLE_STACK_RAM_SIZE - CYBLE_GATT_PREPARE_WRITE_BUFF_LEN, cyBle_stackDataBuff, 
 479:.\Generated_Source\PSoC4/BLE_1.c ****                     CYBLE_STACK_APP_MIN_POOL, NULL, 0u);
 480:.\Generated_Source\PSoC4/BLE_1.c ****             #endif  /* CYBLE_BONDING_REQUIREMENT == CYBLE_BONDING_YES */
 481:.\Generated_Source\PSoC4/BLE_1.c ****         #else
 482:.\Generated_Source\PSoC4/BLE_1.c ****             apiResult = CyBle_StackInit(&CyBle_EventHandler, cyBle_stackMemoryRam, CYBLE_STACK_RAM_
 483:.\Generated_Source\PSoC4/BLE_1.c ****                 NULL, 0u, NULL, 0u);
 484:.\Generated_Source\PSoC4/BLE_1.c ****         #endif /* CYBLE_MODE_PROFILE */
 485:.\Generated_Source\PSoC4/BLE_1.c **** 
 486:.\Generated_Source\PSoC4/BLE_1.c ****             if(apiResult == CYBLE_ERROR_OK)
 487:.\Generated_Source\PSoC4/BLE_1.c ****             {
 488:.\Generated_Source\PSoC4/BLE_1.c ****                 CyBle_SetState(CYBLE_STATE_INITIALIZING);
 489:.\Generated_Source\PSoC4/BLE_1.c ****                 
ARM GAS  C:\Users\Rafael\AppData\Local\Temp\ccwrXay6.s 			page 10


 490:.\Generated_Source\PSoC4/BLE_1.c ****             #if (CYBLE_GATT_ROLE_CLIENT)
 491:.\Generated_Source\PSoC4/BLE_1.c ****                 CyBle_SetClientState(CYBLE_CLIENT_STATE_DISCONNECTED);
 492:.\Generated_Source\PSoC4/BLE_1.c ****             #endif /* CYBLE_GATT_ROLE_CLIENT */
 493:.\Generated_Source\PSoC4/BLE_1.c ****                 
 494:.\Generated_Source\PSoC4/BLE_1.c ****             #if(CYBLE_GATT_ROLE_SERVER)
 495:.\Generated_Source\PSoC4/BLE_1.c ****                 apiResult = CyBle_GattsDbRegister(cyBle_gattDB, CYBLE_GATT_DB_INDEX_COUNT, CYBLE_GA
 496:.\Generated_Source\PSoC4/BLE_1.c ****             #endif /* CYBLE_GATT_ROLE_SERVER */
 497:.\Generated_Source\PSoC4/BLE_1.c ****             }
 498:.\Generated_Source\PSoC4/BLE_1.c ****         }
 499:.\Generated_Source\PSoC4/BLE_1.c ****     }
 500:.\Generated_Source\PSoC4/BLE_1.c ****     else
 501:.\Generated_Source\PSoC4/BLE_1.c ****     {
 502:.\Generated_Source\PSoC4/BLE_1.c ****         apiResult = CYBLE_ERROR_INVALID_PARAMETER;
 503:.\Generated_Source\PSoC4/BLE_1.c ****     }
 504:.\Generated_Source\PSoC4/BLE_1.c **** 
 505:.\Generated_Source\PSoC4/BLE_1.c ****     return (apiResult);
 506:.\Generated_Source\PSoC4/BLE_1.c **** }
 507:.\Generated_Source\PSoC4/BLE_1.c **** 
 508:.\Generated_Source\PSoC4/BLE_1.c **** 
 509:.\Generated_Source\PSoC4/BLE_1.c **** /******************************************************************************
 510:.\Generated_Source\PSoC4/BLE_1.c **** * Function Name: CyBle_Stop
 511:.\Generated_Source\PSoC4/BLE_1.c **** ***************************************************************************//**
 512:.\Generated_Source\PSoC4/BLE_1.c **** * 
 513:.\Generated_Source\PSoC4/BLE_1.c **** *  This function stops any ongoing operation in the BLE Stack and forces the 
 514:.\Generated_Source\PSoC4/BLE_1.c **** *  BLE Stack to shut down. The only function that can be called after calling
 515:.\Generated_Source\PSoC4/BLE_1.c **** *  this function is CyBle_Start(). 
 516:.\Generated_Source\PSoC4/BLE_1.c **** * 
 517:.\Generated_Source\PSoC4/BLE_1.c **** * \return
 518:.\Generated_Source\PSoC4/BLE_1.c **** *  None
 519:.\Generated_Source\PSoC4/BLE_1.c **** * 
 520:.\Generated_Source\PSoC4/BLE_1.c **** ******************************************************************************/
 521:.\Generated_Source\PSoC4/BLE_1.c **** void CyBle_Stop(void)
 522:.\Generated_Source\PSoC4/BLE_1.c **** {
 523:.\Generated_Source\PSoC4/BLE_1.c ****     CyBle_Shutdown();                         /* Stop all ongoing activities */
 524:.\Generated_Source\PSoC4/BLE_1.c ****     CyBle_SetState(CYBLE_STATE_STOPPED);
 525:.\Generated_Source\PSoC4/BLE_1.c ****     #if(CYBLE_SHARING_MODE_EXPORT)
 526:.\Generated_Source\PSoC4/BLE_1.c ****         if(cyBle_stackMemoryRam != NULL)
 527:.\Generated_Source\PSoC4/BLE_1.c ****         {
 528:.\Generated_Source\PSoC4/BLE_1.c ****             free(cyBle_stackMemoryRam);
 529:.\Generated_Source\PSoC4/BLE_1.c ****         }
 530:.\Generated_Source\PSoC4/BLE_1.c ****     #endif /* CYBLE_SHARING_MODE_EXPORT */
 531:.\Generated_Source\PSoC4/BLE_1.c **** }
 532:.\Generated_Source\PSoC4/BLE_1.c **** 
 533:.\Generated_Source\PSoC4/BLE_1.c **** 
 534:.\Generated_Source\PSoC4/BLE_1.c **** #if((CYBLE_GAP_ROLE_PERIPHERAL || CYBLE_GAP_ROLE_CENTRAL) && (CYBLE_BONDING_REQUIREMENT == CYBLE_BO
 535:.\Generated_Source\PSoC4/BLE_1.c **** 
 536:.\Generated_Source\PSoC4/BLE_1.c ****     
 537:.\Generated_Source\PSoC4/BLE_1.c **** /******************************************************************************
 538:.\Generated_Source\PSoC4/BLE_1.c **** * Function Name: CyBle_StoreBondingData
 539:.\Generated_Source\PSoC4/BLE_1.c **** ***************************************************************************//**
 540:.\Generated_Source\PSoC4/BLE_1.c **** * 
 541:.\Generated_Source\PSoC4/BLE_1.c **** *  This function writes the new bonding data from RAM to the dedicated Flash 
 542:.\Generated_Source\PSoC4/BLE_1.c **** *  location as defined by the component. It performs data comparing between RAM
 543:.\Generated_Source\PSoC4/BLE_1.c **** *  and Flash before writing to Flash. If there is no change between RAM and Flash
 544:.\Generated_Source\PSoC4/BLE_1.c **** *  data, then no write is performed. It writes only one flash row in one call.
 545:.\Generated_Source\PSoC4/BLE_1.c **** *  Application should keep calling this function till API return CYBLE_ERROR_OK. 
 546:.\Generated_Source\PSoC4/BLE_1.c **** *  This function is available only when Bonding requirement is selected in
ARM GAS  C:\Users\Rafael\AppData\Local\Temp\ccwrXay6.s 			page 11


 547:.\Generated_Source\PSoC4/BLE_1.c **** *  Security settings.    
 548:.\Generated_Source\PSoC4/BLE_1.c **** * 
 549:.\Generated_Source\PSoC4/BLE_1.c **** *  \param isForceWrite:  If value is set to 0, then stack will check if flash write 
 550:.\Generated_Source\PSoC4/BLE_1.c **** *                 is permissible. 
 551:.\Generated_Source\PSoC4/BLE_1.c **** *  
 552:.\Generated_Source\PSoC4/BLE_1.c **** * \return
 553:.\Generated_Source\PSoC4/BLE_1.c **** *  Return value is of type CYBLE_API_RESULT_T.
 554:.\Generated_Source\PSoC4/BLE_1.c **** *
 555:.\Generated_Source\PSoC4/BLE_1.c **** *   Errors codes                         | Description
 556:.\Generated_Source\PSoC4/BLE_1.c **** *   ----------------------------------   | ------------------------------------
 557:.\Generated_Source\PSoC4/BLE_1.c **** *   CYBLE_ERROR_OK                       | On successful operation
 558:.\Generated_Source\PSoC4/BLE_1.c **** *   CYBLE_ERROR_FLASH_WRITE_NOT_PERMITED | Flash Write is not complete
 559:.\Generated_Source\PSoC4/BLE_1.c **** *    
 560:.\Generated_Source\PSoC4/BLE_1.c **** *  \sideeffect
 561:.\Generated_Source\PSoC4/BLE_1.c **** *   For BLE devices with 128K of Flash memory this API will automatically 
 562:.\Generated_Source\PSoC4/BLE_1.c **** *   modify the clock settings for the device.
 563:.\Generated_Source\PSoC4/BLE_1.c **** *   Writing to flash requires changes to be done to the IMO (set to 48 MHz)
 564:.\Generated_Source\PSoC4/BLE_1.c **** *   and HFCLK (source set to IMO) settings. The configuration is restored before
 565:.\Generated_Source\PSoC4/BLE_1.c **** *   returning. This will impact the operation of most of the hardware in the
 566:.\Generated_Source\PSoC4/BLE_1.c **** *   device.
 567:.\Generated_Source\PSoC4/BLE_1.c **** * 
 568:.\Generated_Source\PSoC4/BLE_1.c **** *  \globalvars
 569:.\Generated_Source\PSoC4/BLE_1.c **** *   The cyBle_pendingFlashWrite variable is used to detect status
 570:.\Generated_Source\PSoC4/BLE_1.c **** *   of pending write to flash operation for stack data and CCCD.
 571:.\Generated_Source\PSoC4/BLE_1.c **** *   This API automatically clears pending bits after write operation complete.
 572:.\Generated_Source\PSoC4/BLE_1.c **** *     
 573:.\Generated_Source\PSoC4/BLE_1.c **** ******************************************************************************/
 574:.\Generated_Source\PSoC4/BLE_1.c **** CYBLE_API_RESULT_T CyBle_StoreBondingData(uint8 isForceWrite)
 575:.\Generated_Source\PSoC4/BLE_1.c **** {
 576:.\Generated_Source\PSoC4/BLE_1.c ****     CYBLE_API_RESULT_T apiResult = CYBLE_ERROR_OK;
 577:.\Generated_Source\PSoC4/BLE_1.c ****     
 578:.\Generated_Source\PSoC4/BLE_1.c ****     /* Store Stack data */
 579:.\Generated_Source\PSoC4/BLE_1.c ****     if((cyBle_pendingFlashWrite & CYBLE_PENDING_STACK_FLASH_WRITE_BIT) != 0u)
 580:.\Generated_Source\PSoC4/BLE_1.c ****     {
 581:.\Generated_Source\PSoC4/BLE_1.c ****         apiResult = CyBle_StoreStackData(isForceWrite);
 582:.\Generated_Source\PSoC4/BLE_1.c ****         if(apiResult == CYBLE_ERROR_OK)
 583:.\Generated_Source\PSoC4/BLE_1.c ****         {
 584:.\Generated_Source\PSoC4/BLE_1.c ****             cyBle_pendingFlashWrite &= (uint8)~CYBLE_PENDING_STACK_FLASH_WRITE_BIT;
 585:.\Generated_Source\PSoC4/BLE_1.c ****             /* Change apiResult if there are more pending data to store */
 586:.\Generated_Source\PSoC4/BLE_1.c ****             if((cyBle_pendingFlashWrite & CYBLE_PENDING_CCCD_FLASH_WRITE_BIT) != 0u)
 587:.\Generated_Source\PSoC4/BLE_1.c ****             {
 588:.\Generated_Source\PSoC4/BLE_1.c ****                 apiResult = CYBLE_ERROR_FLASH_WRITE_NOT_PERMITED;
 589:.\Generated_Source\PSoC4/BLE_1.c ****             }
 590:.\Generated_Source\PSoC4/BLE_1.c ****         }
 591:.\Generated_Source\PSoC4/BLE_1.c ****     }
 592:.\Generated_Source\PSoC4/BLE_1.c **** #if(CYBLE_GATT_DB_CCCD_COUNT != 0u)
 593:.\Generated_Source\PSoC4/BLE_1.c ****     /* Store CCCD values */
 594:.\Generated_Source\PSoC4/BLE_1.c ****     if( ((apiResult == CYBLE_ERROR_OK) || (isForceWrite != 0u)) && 
 595:.\Generated_Source\PSoC4/BLE_1.c ****         ((cyBle_pendingFlashWrite & CYBLE_PENDING_CCCD_FLASH_WRITE_BIT) != 0u) &&
 596:.\Generated_Source\PSoC4/BLE_1.c ****         (cyBle_connHandle.bdHandle <= CYBLE_GAP_MAX_BONDED_DEVICE))
 597:.\Generated_Source\PSoC4/BLE_1.c ****     {
 598:.\Generated_Source\PSoC4/BLE_1.c ****         apiResult = CyBle_StoreAppData(cyBle_attValuesCCCD, cyBle_flashStorage.attValuesCCCDFlashMe
 599:.\Generated_Source\PSoC4/BLE_1.c ****                         cyBle_connHandle.bdHandle], CYBLE_GATT_DB_CCCD_COUNT, isForceWrite);
 600:.\Generated_Source\PSoC4/BLE_1.c ****         if(apiResult == CYBLE_ERROR_OK)
 601:.\Generated_Source\PSoC4/BLE_1.c ****         {
 602:.\Generated_Source\PSoC4/BLE_1.c ****             cyBle_pendingFlashWrite &= (uint8)~CYBLE_PENDING_CCCD_FLASH_WRITE_BIT;
 603:.\Generated_Source\PSoC4/BLE_1.c ****         }
ARM GAS  C:\Users\Rafael\AppData\Local\Temp\ccwrXay6.s 			page 12


 604:.\Generated_Source\PSoC4/BLE_1.c ****     }
 605:.\Generated_Source\PSoC4/BLE_1.c ****     /* Clear requested CCCD values */
 606:.\Generated_Source\PSoC4/BLE_1.c ****     if( ((apiResult == CYBLE_ERROR_OK) || (isForceWrite != 0u)) && 
 607:.\Generated_Source\PSoC4/BLE_1.c ****         ((cyBle_pendingFlashWrite & CYBLE_PENDING_CCCD_FLASH_CLEAR_MASK) != 0u) )
 608:.\Generated_Source\PSoC4/BLE_1.c ****     {
 609:.\Generated_Source\PSoC4/BLE_1.c ****         if((cyBle_pendingFlashWrite & CYBLE_PENDING_CCCD_FLASH_CLEAR_ALL_BIT) != 0u)
 610:.\Generated_Source\PSoC4/BLE_1.c ****         {
 611:.\Generated_Source\PSoC4/BLE_1.c ****             /* Remove cccd values for all bonded devices */
 612:.\Generated_Source\PSoC4/BLE_1.c ****             uint8 defaultValuesCCCD[CYBLE_GAP_MAX_BONDED_DEVICE + 1u][CYBLE_GATT_DB_CCCD_COUNT];
 613:.\Generated_Source\PSoC4/BLE_1.c ****             
 614:.\Generated_Source\PSoC4/BLE_1.c ****             (void)memset(defaultValuesCCCD, 0, sizeof(defaultValuesCCCD));
 615:.\Generated_Source\PSoC4/BLE_1.c **** 
 616:.\Generated_Source\PSoC4/BLE_1.c ****             apiResult = CyBle_StoreAppData((uint8 *)defaultValuesCCCD, 
 617:.\Generated_Source\PSoC4/BLE_1.c ****                 (const uint8 *)cyBle_flashStorage.attValuesCCCDFlashMemory, sizeof(defaultValuesCCC
 618:.\Generated_Source\PSoC4/BLE_1.c ****             if(apiResult == CYBLE_ERROR_OK)
 619:.\Generated_Source\PSoC4/BLE_1.c ****             {
 620:.\Generated_Source\PSoC4/BLE_1.c ****                 cyBle_pendingFlashWrite &= (uint8)~CYBLE_PENDING_CCCD_FLASH_CLEAR_ALL_BIT;
 621:.\Generated_Source\PSoC4/BLE_1.c ****             }
 622:.\Generated_Source\PSoC4/BLE_1.c ****         }
 623:.\Generated_Source\PSoC4/BLE_1.c ****         else /* Remove cccd values for particular device */
 624:.\Generated_Source\PSoC4/BLE_1.c ****         {
 625:.\Generated_Source\PSoC4/BLE_1.c ****             uint8 defaultValuesCCCD[CYBLE_GATT_DB_CCCD_COUNT] = {0u};
 626:.\Generated_Source\PSoC4/BLE_1.c ****             
 627:.\Generated_Source\PSoC4/BLE_1.c ****             apiResult = CyBle_StoreAppData(defaultValuesCCCD, cyBle_flashStorage.attValuesCCCDFlash
 628:.\Generated_Source\PSoC4/BLE_1.c ****                                     cyBle_pendingFlashClearCccdHandle], CYBLE_GATT_DB_CCCD_COUNT, i
 629:.\Generated_Source\PSoC4/BLE_1.c ****             if(apiResult == CYBLE_ERROR_OK)
 630:.\Generated_Source\PSoC4/BLE_1.c ****             {
 631:.\Generated_Source\PSoC4/BLE_1.c ****                 cyBle_pendingFlashWrite &= (uint8)~CYBLE_PENDING_CCCD_FLASH_CLEAR_BIT;
 632:.\Generated_Source\PSoC4/BLE_1.c ****             }
 633:.\Generated_Source\PSoC4/BLE_1.c ****         }
 634:.\Generated_Source\PSoC4/BLE_1.c ****     }
 635:.\Generated_Source\PSoC4/BLE_1.c **** #endif /* CYBLE_GATT_DB_CCCD_COUNT != 0u */
 636:.\Generated_Source\PSoC4/BLE_1.c ****     return(apiResult);
 637:.\Generated_Source\PSoC4/BLE_1.c **** }
 638:.\Generated_Source\PSoC4/BLE_1.c **** 
 639:.\Generated_Source\PSoC4/BLE_1.c **** 
 640:.\Generated_Source\PSoC4/BLE_1.c **** /******************************************************************************
 641:.\Generated_Source\PSoC4/BLE_1.c **** * Function Name: CyBle_GapRemoveBondedDevice
 642:.\Generated_Source\PSoC4/BLE_1.c **** ***************************************************************************//**
 643:.\Generated_Source\PSoC4/BLE_1.c **** * 
 644:.\Generated_Source\PSoC4/BLE_1.c **** *  This function marks the device untrusted. It removes the bonding information
 645:.\Generated_Source\PSoC4/BLE_1.c **** *  of the device including CCCD values. This function removes device from the
 646:.\Generated_Source\PSoC4/BLE_1.c **** *  white list also when autopopulate white list with bonded devices option is
 647:.\Generated_Source\PSoC4/BLE_1.c **** *  enabled.
 648:.\Generated_Source\PSoC4/BLE_1.c **** * 
 649:.\Generated_Source\PSoC4/BLE_1.c **** *  This function is available only when Bonding requirement is selected in
 650:.\Generated_Source\PSoC4/BLE_1.c **** *  Security settings.    
 651:.\Generated_Source\PSoC4/BLE_1.c **** *
 652:.\Generated_Source\PSoC4/BLE_1.c **** *  \param bdAddr: Pointer to peer device address, of type CYBLE_GAP_BD_ADDR_T.
 653:.\Generated_Source\PSoC4/BLE_1.c **** *                 If device address is set to 0, then all devices shall be
 654:.\Generated_Source\PSoC4/BLE_1.c **** *                 removed from trusted list and white list.
 655:.\Generated_Source\PSoC4/BLE_1.c **** *
 656:.\Generated_Source\PSoC4/BLE_1.c **** * \return
 657:.\Generated_Source\PSoC4/BLE_1.c **** *  CYBLE_API_RESULT_T : Return value indicates if the function succeeded or
 658:.\Generated_Source\PSoC4/BLE_1.c **** *  failed. Following are the possible error codes.
 659:.\Generated_Source\PSoC4/BLE_1.c **** *
 660:.\Generated_Source\PSoC4/BLE_1.c **** *   Errors codes                     | Description
ARM GAS  C:\Users\Rafael\AppData\Local\Temp\ccwrXay6.s 			page 13


 661:.\Generated_Source\PSoC4/BLE_1.c **** *   ---------------------------------| ------------------------------------
 662:.\Generated_Source\PSoC4/BLE_1.c **** *   CYBLE_ERROR_OK                   | On successful operation.
 663:.\Generated_Source\PSoC4/BLE_1.c **** *   CYBLE_ERROR_INVALID_PARAMETER    | On specifying NULL as input parameter for 'bdAddr'.
 664:.\Generated_Source\PSoC4/BLE_1.c **** *   CYBLE_ERROR_INVALID_OPERATION    | Whitelist is already in use or there is pending write to fla
 665:.\Generated_Source\PSoC4/BLE_1.c **** *   CYBLE_ERROR_NO_DEVICE_ENTITY     | Device does not exist in the bond list.
 666:.\Generated_Source\PSoC4/BLE_1.c **** *
 667:.\Generated_Source\PSoC4/BLE_1.c **** *  \globalvars
 668:.\Generated_Source\PSoC4/BLE_1.c **** *   The bdHandle is set in cyBle_pendingFlashWrite variable to indicate that
 669:.\Generated_Source\PSoC4/BLE_1.c **** *   data should be stored to flash by CyBle_StoreBondingData afterwards. 
 670:.\Generated_Source\PSoC4/BLE_1.c **** *     
 671:.\Generated_Source\PSoC4/BLE_1.c **** ******************************************************************************/
 672:.\Generated_Source\PSoC4/BLE_1.c **** CYBLE_API_RESULT_T CyBle_GapRemoveBondedDevice(CYBLE_GAP_BD_ADDR_T* bdAddr)
 673:.\Generated_Source\PSoC4/BLE_1.c **** {
 674:.\Generated_Source\PSoC4/BLE_1.c ****     CYBLE_API_RESULT_T apiResult = CYBLE_ERROR_OK;
 675:.\Generated_Source\PSoC4/BLE_1.c ****     
 676:.\Generated_Source\PSoC4/BLE_1.c ****     if(cyBle_pendingFlashWrite == 0u)
 677:.\Generated_Source\PSoC4/BLE_1.c ****     {
 678:.\Generated_Source\PSoC4/BLE_1.c ****         
 679:.\Generated_Source\PSoC4/BLE_1.c ****     #if(CYBLE_GATT_DB_CCCD_COUNT != 0u)
 680:.\Generated_Source\PSoC4/BLE_1.c ****         /* Request to clear CCCD values which will be done by CyBle_StoreBondingData API */
 681:.\Generated_Source\PSoC4/BLE_1.c ****         uint8 bDevHandle;
 682:.\Generated_Source\PSoC4/BLE_1.c ****         CYBLE_GAP_BD_ADDR_T invalidBdAddr = {{0u,0u,0u,0u,0u,0u}, 0u};
 683:.\Generated_Source\PSoC4/BLE_1.c **** 
 684:.\Generated_Source\PSoC4/BLE_1.c ****         if(memcmp(((uint8 *) &(bdAddr->bdAddr)), ((uint8 *) &(invalidBdAddr.bdAddr)), CYBLE_GAP_BD_
 685:.\Generated_Source\PSoC4/BLE_1.c **** 	    {
 686:.\Generated_Source\PSoC4/BLE_1.c ****             /* Request to remove all bonded devices by cyBle_StoreBondingData API */
 687:.\Generated_Source\PSoC4/BLE_1.c ****             cyBle_pendingFlashWrite |= CYBLE_PENDING_CCCD_FLASH_CLEAR_ALL_BIT;
 688:.\Generated_Source\PSoC4/BLE_1.c ****         }
 689:.\Generated_Source\PSoC4/BLE_1.c ****         else
 690:.\Generated_Source\PSoC4/BLE_1.c ****         {
 691:.\Generated_Source\PSoC4/BLE_1.c ****             /* Get the BD handle from Address */
 692:.\Generated_Source\PSoC4/BLE_1.c ****             apiResult = CyBle_GapGetPeerBdHandle(&bDevHandle, bdAddr);
 693:.\Generated_Source\PSoC4/BLE_1.c ****             if(apiResult == CYBLE_ERROR_OK)
 694:.\Generated_Source\PSoC4/BLE_1.c ****             {
 695:.\Generated_Source\PSoC4/BLE_1.c ****                 /* Store BD handle to clear cccd values by CyBle_StoreBondingData API */
 696:.\Generated_Source\PSoC4/BLE_1.c ****                 cyBle_pendingFlashWrite |= CYBLE_PENDING_CCCD_FLASH_CLEAR_BIT;
 697:.\Generated_Source\PSoC4/BLE_1.c ****                 cyBle_pendingFlashClearCccdHandle = bDevHandle;
 698:.\Generated_Source\PSoC4/BLE_1.c ****             }
 699:.\Generated_Source\PSoC4/BLE_1.c ****         }
 700:.\Generated_Source\PSoC4/BLE_1.c ****         if(apiResult == CYBLE_ERROR_OK)
 701:.\Generated_Source\PSoC4/BLE_1.c ****         {
 702:.\Generated_Source\PSoC4/BLE_1.c ****             #if(CYBLE_AUTO_POPULATE_WHITELIST != 0u)
 703:.\Generated_Source\PSoC4/BLE_1.c ****                 apiResult = CyBle_GapRemoveDeviceFromWhiteList(bdAddr);
 704:.\Generated_Source\PSoC4/BLE_1.c ****             #else
 705:.\Generated_Source\PSoC4/BLE_1.c ****                 apiResult = CyBle_GapRemDeviceFromBondList(bdAddr);
 706:.\Generated_Source\PSoC4/BLE_1.c ****             #endif
 707:.\Generated_Source\PSoC4/BLE_1.c ****         }
 708:.\Generated_Source\PSoC4/BLE_1.c ****     #endif /* CYBLE_GATT_DB_CCCD_COUNT != 0u */
 709:.\Generated_Source\PSoC4/BLE_1.c ****     }
 710:.\Generated_Source\PSoC4/BLE_1.c ****     else
 711:.\Generated_Source\PSoC4/BLE_1.c ****     {
 712:.\Generated_Source\PSoC4/BLE_1.c ****         apiResult = CYBLE_ERROR_INVALID_OPERATION;
 713:.\Generated_Source\PSoC4/BLE_1.c ****     }
 714:.\Generated_Source\PSoC4/BLE_1.c ****     
 715:.\Generated_Source\PSoC4/BLE_1.c ****     return(apiResult);
 716:.\Generated_Source\PSoC4/BLE_1.c **** }
 717:.\Generated_Source\PSoC4/BLE_1.c **** 
ARM GAS  C:\Users\Rafael\AppData\Local\Temp\ccwrXay6.s 			page 14


 718:.\Generated_Source\PSoC4/BLE_1.c **** 
 719:.\Generated_Source\PSoC4/BLE_1.c **** #endif /* (CYBLE_GAP_ROLE_PERIPHERAL || CYBLE_GAP_ROLE_CENTRAL) && (CYBLE_BONDING_REQUIREMENT == CY
 720:.\Generated_Source\PSoC4/BLE_1.c **** 
 721:.\Generated_Source\PSoC4/BLE_1.c **** 
 722:.\Generated_Source\PSoC4/BLE_1.c **** #if(CYBLE_GAP_ROLE_PERIPHERAL || CYBLE_GAP_ROLE_BROADCASTER)
 723:.\Generated_Source\PSoC4/BLE_1.c **** 
 724:.\Generated_Source\PSoC4/BLE_1.c ****     /******************************************************************************
 725:.\Generated_Source\PSoC4/BLE_1.c ****     *  Function Name: CyBle_GappStartAdvertisement
 726:.\Generated_Source\PSoC4/BLE_1.c ****     ***************************************************************************//**
 727:.\Generated_Source\PSoC4/BLE_1.c ****     *     
 728:.\Generated_Source\PSoC4/BLE_1.c ****     *  This function is used to start the advertisement using the advertisement data 
 729:.\Generated_Source\PSoC4/BLE_1.c ****     *  set in the component customizer's GUI. After invoking this API, the device 
 730:.\Generated_Source\PSoC4/BLE_1.c ****     *  will be available for connection by the devices configured for GAP central 
 731:.\Generated_Source\PSoC4/BLE_1.c ****     *  role. It is only included if the device is configured for GAP Peripheral or 
 732:.\Generated_Source\PSoC4/BLE_1.c ****     *  GAP Peripheral + Central role.
 733:.\Generated_Source\PSoC4/BLE_1.c ****     *  
 734:.\Generated_Source\PSoC4/BLE_1.c ****     *  On start of advertisement, GAP Peripheral receives the
 735:.\Generated_Source\PSoC4/BLE_1.c ****     *  CYBLE_EVT_GAPP_ADVERTISEMENT_START_STOP event. The following events are 
 736:.\Generated_Source\PSoC4/BLE_1.c ****     *  possible on invoking this function:
 737:.\Generated_Source\PSoC4/BLE_1.c ****     *  
 738:.\Generated_Source\PSoC4/BLE_1.c ****     *  * CYBLE_EVT_GAP_DEVICE_CONNECTED - If the device connects to a GAP Central and 
 739:.\Generated_Source\PSoC4/BLE_1.c ****     *    Link Layer Privacy is disabled in component customizer.
 740:.\Generated_Source\PSoC4/BLE_1.c ****     *  * CYBLE_EVT_GAP_ENHANCE_CONN_COMPLETE - If the device connects to a GAP Central and 
 741:.\Generated_Source\PSoC4/BLE_1.c ****     *    Link Layer Privacy is enabled in component customizer.
 742:.\Generated_Source\PSoC4/BLE_1.c ****     *  * CYBLE_EVT_TIMEOUT: If no device in GAP Central mode connects to this 
 743:.\Generated_Source\PSoC4/BLE_1.c ****     *                       device within the specified timeout limit. Stack 
 744:.\Generated_Source\PSoC4/BLE_1.c ****     *                       automatically initiate stop advertising when Slow 
 745:.\Generated_Source\PSoC4/BLE_1.c ****     *                       advertising was initiated, or starts Slow advertising
 746:.\Generated_Source\PSoC4/BLE_1.c ****     *                       after Fast advertising timeout occur.
 747:.\Generated_Source\PSoC4/BLE_1.c ****     *  * CYBLE_EVT_GAPP_ADVERTISEMENT_START_STOP: If device started or stopped
 748:.\Generated_Source\PSoC4/BLE_1.c ****     *                                               advertising. Use CyBle_GetState()
 749:.\Generated_Source\PSoC4/BLE_1.c ****     *                                               to determine the state. Sequential 
 750:.\Generated_Source\PSoC4/BLE_1.c ****     *                                               advertising could be started when
 751:.\Generated_Source\PSoC4/BLE_1.c ****     *                                               CYBLE_STATE_DISCONNECTED state is
 752:.\Generated_Source\PSoC4/BLE_1.c ****     *                                               returned.
 753:.\Generated_Source\PSoC4/BLE_1.c ****     * 
 754:.\Generated_Source\PSoC4/BLE_1.c ****     *  \param advertisingIntervalType: Fast or slow advertising interval with timings
 755:.\Generated_Source\PSoC4/BLE_1.c ****     *                                 entered in Advertising settings section of the
 756:.\Generated_Source\PSoC4/BLE_1.c ****     *                                 customizer.
 757:.\Generated_Source\PSoC4/BLE_1.c ****     *  * CYBLE_ADVERTISING_FAST   0x00u
 758:.\Generated_Source\PSoC4/BLE_1.c ****     *  * CYBLE_ADVERTISING_SLOW   0x01u
 759:.\Generated_Source\PSoC4/BLE_1.c ****     *  * CYBLE_ADVERTISING_CUSTOM 0x02u
 760:.\Generated_Source\PSoC4/BLE_1.c ****     * 
 761:.\Generated_Source\PSoC4/BLE_1.c ****     * \return
 762:.\Generated_Source\PSoC4/BLE_1.c ****     *  CYBLE_API_RESULT_T : Return value indicates if the function succeeded or
 763:.\Generated_Source\PSoC4/BLE_1.c ****     *  failed. Following are the possible error codes.
 764:.\Generated_Source\PSoC4/BLE_1.c ****     * 
 765:.\Generated_Source\PSoC4/BLE_1.c ****     *   Errors codes                      |  Description
 766:.\Generated_Source\PSoC4/BLE_1.c ****     *   --------------------------------- |  --------------------------------
 767:.\Generated_Source\PSoC4/BLE_1.c ****     *   CYBLE_ERROR_OK                    |  On successful operation.
 768:.\Generated_Source\PSoC4/BLE_1.c ****     *   CYBLE_ERROR_INVALID_PARAMETER     |  On passing an invalid parameter.
 769:.\Generated_Source\PSoC4/BLE_1.c ****     *   CYBLE_ERROR_INVALID_STATE         |  On calling this API not in Disconnected state.
 770:.\Generated_Source\PSoC4/BLE_1.c ****     *
 771:.\Generated_Source\PSoC4/BLE_1.c ****     * 
 772:.\Generated_Source\PSoC4/BLE_1.c ****     *******************************************************************************/
 773:.\Generated_Source\PSoC4/BLE_1.c ****     CYBLE_API_RESULT_T CyBle_GappStartAdvertisement(uint8 advertisingIntervalType)
 774:.\Generated_Source\PSoC4/BLE_1.c ****     {
ARM GAS  C:\Users\Rafael\AppData\Local\Temp\ccwrXay6.s 			page 15


 775:.\Generated_Source\PSoC4/BLE_1.c ****         CYBLE_API_RESULT_T apiResult;
 776:.\Generated_Source\PSoC4/BLE_1.c ****         
 777:.\Generated_Source\PSoC4/BLE_1.c ****         if(advertisingIntervalType > CYBLE_ADVERTISING_CUSTOM)
 778:.\Generated_Source\PSoC4/BLE_1.c ****         {
 779:.\Generated_Source\PSoC4/BLE_1.c ****             apiResult = CYBLE_ERROR_INVALID_PARAMETER;
 780:.\Generated_Source\PSoC4/BLE_1.c ****         }
 781:.\Generated_Source\PSoC4/BLE_1.c ****         else if((CYBLE_STATE_DISCONNECTED == CyBle_GetState()) && ((cyBle_eventHandlerFlag & CYBLE_
 782:.\Generated_Source\PSoC4/BLE_1.c ****         {   
 783:.\Generated_Source\PSoC4/BLE_1.c ****             if(advertisingIntervalType == CYBLE_ADVERTISING_FAST)
 784:.\Generated_Source\PSoC4/BLE_1.c ****             {
 785:.\Generated_Source\PSoC4/BLE_1.c ****                 cyBle_discoveryModeInfo.advTo = CYBLE_FAST_ADV_TIMEOUT;
 786:.\Generated_Source\PSoC4/BLE_1.c ****                 cyBle_discoveryModeInfo.advParam->advIntvMin = CYBLE_FAST_ADV_INT_MIN;
 787:.\Generated_Source\PSoC4/BLE_1.c ****                 cyBle_discoveryModeInfo.advParam->advIntvMax = CYBLE_FAST_ADV_INT_MAX;
 788:.\Generated_Source\PSoC4/BLE_1.c ****             }
 789:.\Generated_Source\PSoC4/BLE_1.c ****             else if(advertisingIntervalType == CYBLE_ADVERTISING_SLOW)
 790:.\Generated_Source\PSoC4/BLE_1.c ****             {
 791:.\Generated_Source\PSoC4/BLE_1.c ****                 cyBle_discoveryModeInfo.advTo = CYBLE_SLOW_ADV_TIMEOUT;
 792:.\Generated_Source\PSoC4/BLE_1.c ****                 cyBle_discoveryModeInfo.advParam->advIntvMin = CYBLE_SLOW_ADV_INT_MIN;
 793:.\Generated_Source\PSoC4/BLE_1.c ****                 cyBle_discoveryModeInfo.advParam->advIntvMax = CYBLE_SLOW_ADV_INT_MAX;
 794:.\Generated_Source\PSoC4/BLE_1.c ****             }       
 795:.\Generated_Source\PSoC4/BLE_1.c ****             else /* Do not update advertising intervals */
 796:.\Generated_Source\PSoC4/BLE_1.c ****             {
 797:.\Generated_Source\PSoC4/BLE_1.c ****             }
 798:.\Generated_Source\PSoC4/BLE_1.c ****             cyBle_advertisingIntervalType = advertisingIntervalType;
 799:.\Generated_Source\PSoC4/BLE_1.c ****             apiResult = CyBle_GappEnterDiscoveryMode(&cyBle_discoveryModeInfo);
 800:.\Generated_Source\PSoC4/BLE_1.c ****         
 801:.\Generated_Source\PSoC4/BLE_1.c ****             if(CYBLE_ERROR_OK == apiResult)
 802:.\Generated_Source\PSoC4/BLE_1.c ****             {
 803:.\Generated_Source\PSoC4/BLE_1.c ****                 cyBle_eventHandlerFlag |= CYBLE_START_FLAG;
 804:.\Generated_Source\PSoC4/BLE_1.c ****             }
 805:.\Generated_Source\PSoC4/BLE_1.c ****         }
 806:.\Generated_Source\PSoC4/BLE_1.c ****         else
 807:.\Generated_Source\PSoC4/BLE_1.c ****         {
 808:.\Generated_Source\PSoC4/BLE_1.c ****             apiResult = CYBLE_ERROR_INVALID_STATE;
 809:.\Generated_Source\PSoC4/BLE_1.c ****         }
 810:.\Generated_Source\PSoC4/BLE_1.c **** 
 811:.\Generated_Source\PSoC4/BLE_1.c ****         return (apiResult);
 812:.\Generated_Source\PSoC4/BLE_1.c ****     }
 813:.\Generated_Source\PSoC4/BLE_1.c **** 
 814:.\Generated_Source\PSoC4/BLE_1.c ****     
 815:.\Generated_Source\PSoC4/BLE_1.c ****     /******************************************************************************
 816:.\Generated_Source\PSoC4/BLE_1.c ****     * Function Name: CyBle_GappStopAdvertisement
 817:.\Generated_Source\PSoC4/BLE_1.c ****     ***************************************************************************//**
 818:.\Generated_Source\PSoC4/BLE_1.c ****     * 
 819:.\Generated_Source\PSoC4/BLE_1.c ****     *   This function can be used to exit from discovery mode. After the execution 
 820:.\Generated_Source\PSoC4/BLE_1.c ****     *   of this function, there will no longer be any advertisements. On stopping 
 821:.\Generated_Source\PSoC4/BLE_1.c ****     *   advertising, GAP Peripheral receives CYBLE_EVT_GAPP_ADVERTISEMENT_START_STOP
 822:.\Generated_Source\PSoC4/BLE_1.c ****     *   event. It is expected that the application layer tracks the function call 
 823:.\Generated_Source\PSoC4/BLE_1.c ****     *   performed before occurrence of this event as this event can occur on making 
 824:.\Generated_Source\PSoC4/BLE_1.c ****     *   a call to Cy_BleGappStartAdvertisement(), CyBle_GappEnterDiscoveryMode(), 
 825:.\Generated_Source\PSoC4/BLE_1.c ****     *   or CyBle_GappStartAdvertisement() functions as well.
 826:.\Generated_Source\PSoC4/BLE_1.c ****     *   
 827:.\Generated_Source\PSoC4/BLE_1.c ****     *   The following event occurs on invoking this function:
 828:.\Generated_Source\PSoC4/BLE_1.c ****     *   * CYBLE_EVT_GAPP_ADVERTISEMENT_START_STOP
 829:.\Generated_Source\PSoC4/BLE_1.c ****     * 
 830:.\Generated_Source\PSoC4/BLE_1.c ****     *  \return
 831:.\Generated_Source\PSoC4/BLE_1.c ****     *   None
ARM GAS  C:\Users\Rafael\AppData\Local\Temp\ccwrXay6.s 			page 16


 832:.\Generated_Source\PSoC4/BLE_1.c ****     * 
 833:.\Generated_Source\PSoC4/BLE_1.c ****     *******************************************************************************/
 834:.\Generated_Source\PSoC4/BLE_1.c ****     void CyBle_GappStopAdvertisement(void)
 835:.\Generated_Source\PSoC4/BLE_1.c ****     {
 836:.\Generated_Source\PSoC4/BLE_1.c ****         CyBle_GappExitDiscoveryMode();
 837:.\Generated_Source\PSoC4/BLE_1.c ****         cyBle_eventHandlerFlag |= CYBLE_STOP_FLAG;
 838:.\Generated_Source\PSoC4/BLE_1.c ****     }
 839:.\Generated_Source\PSoC4/BLE_1.c ****     
 840:.\Generated_Source\PSoC4/BLE_1.c ****     
 841:.\Generated_Source\PSoC4/BLE_1.c ****     /******************************************************************************
 842:.\Generated_Source\PSoC4/BLE_1.c ****     * Function Name: CyBle_ChangeAdDeviceAddress
 843:.\Generated_Source\PSoC4/BLE_1.c ****     ***************************************************************************//**
 844:.\Generated_Source\PSoC4/BLE_1.c ****     * 
 845:.\Generated_Source\PSoC4/BLE_1.c ****     *  This API is used to set the Bluetooth device address into the advertisement 
 846:.\Generated_Source\PSoC4/BLE_1.c ****     *  or scan response data structure.
 847:.\Generated_Source\PSoC4/BLE_1.c ****     * 
 848:.\Generated_Source\PSoC4/BLE_1.c ****     *  \param bdAddr: Bluetooth Device address. The variable is of type CYBLE_GAP_BD_ADDR_T
 849:.\Generated_Source\PSoC4/BLE_1.c ****     *  \param dest: 0 - selects advertisement structure, not zero value selects scan 
 850:.\Generated_Source\PSoC4/BLE_1.c ****     *               response structure.
 851:.\Generated_Source\PSoC4/BLE_1.c ****     * 
 852:.\Generated_Source\PSoC4/BLE_1.c ****     * \return
 853:.\Generated_Source\PSoC4/BLE_1.c ****     *  None
 854:.\Generated_Source\PSoC4/BLE_1.c ****     *  
 855:.\Generated_Source\PSoC4/BLE_1.c ****     *******************************************************************************/
 856:.\Generated_Source\PSoC4/BLE_1.c ****     void CyBle_ChangeAdDeviceAddress(const CYBLE_GAP_BD_ADDR_T* bdAddr, uint8 dest)
 857:.\Generated_Source\PSoC4/BLE_1.c ****     {
 858:.\Generated_Source\PSoC4/BLE_1.c ****         uint8 i;
 859:.\Generated_Source\PSoC4/BLE_1.c ****         uint8 *destBuffer = NULL;
 860:.\Generated_Source\PSoC4/BLE_1.c ****         
 861:.\Generated_Source\PSoC4/BLE_1.c ****         if(dest == 0u)      /* Destination - advertising structure */
 862:.\Generated_Source\PSoC4/BLE_1.c ****         {
 863:.\Generated_Source\PSoC4/BLE_1.c ****             #ifdef CYBLE_ADV_PKT_INDEX_BLUETOOTH_DEVICE_ADDRESS
 864:.\Generated_Source\PSoC4/BLE_1.c ****                 destBuffer = &cyBle_discoveryData.advData[CYBLE_ADV_PKT_INDEX_BLUETOOTH_DEVICE_ADDR
 865:.\Generated_Source\PSoC4/BLE_1.c ****             #endif /* CYBLE_ADV_PKT_INDEX_BLUETOOTH_DEVICE_ADDRESS */
 866:.\Generated_Source\PSoC4/BLE_1.c ****         }
 867:.\Generated_Source\PSoC4/BLE_1.c ****         else                /* Destination - scan response structure */
 868:.\Generated_Source\PSoC4/BLE_1.c ****         {
 869:.\Generated_Source\PSoC4/BLE_1.c ****             #ifdef CYBLE_SCN_PKT_INDEX_BLUETOOTH_DEVICE_ADDRESS
 870:.\Generated_Source\PSoC4/BLE_1.c ****                 destBuffer = &cyBle_scanRspData.scanRspData[CYBLE_SCN_PKT_INDEX_BLUETOOTH_DEVICE_AD
 871:.\Generated_Source\PSoC4/BLE_1.c ****             #endif /* CYBLE_SCN_PKT_INDEX_BLUETOOTH_DEVICE_ADDRESS */    
 872:.\Generated_Source\PSoC4/BLE_1.c ****         }
 873:.\Generated_Source\PSoC4/BLE_1.c ****         
 874:.\Generated_Source\PSoC4/BLE_1.c ****         if(destBuffer != NULL)
 875:.\Generated_Source\PSoC4/BLE_1.c ****         {
 876:.\Generated_Source\PSoC4/BLE_1.c ****             /* Update Device Address type */
 877:.\Generated_Source\PSoC4/BLE_1.c ****             destBuffer[0u] = bdAddr->type;
 878:.\Generated_Source\PSoC4/BLE_1.c ****             
 879:.\Generated_Source\PSoC4/BLE_1.c ****             for(i = 0u; i < CYBLE_GAP_BD_ADDR_SIZE; i++)
 880:.\Generated_Source\PSoC4/BLE_1.c ****             {
 881:.\Generated_Source\PSoC4/BLE_1.c ****                 destBuffer[i + 1u] = bdAddr->bdAddr[i];
 882:.\Generated_Source\PSoC4/BLE_1.c ****             }
 883:.\Generated_Source\PSoC4/BLE_1.c ****         }
 884:.\Generated_Source\PSoC4/BLE_1.c ****     }
 885:.\Generated_Source\PSoC4/BLE_1.c ****   
 886:.\Generated_Source\PSoC4/BLE_1.c **** #endif /* CYBLE_GAP_ROLE_PERIPHERAL || CYBLE_GAP_ROLE_BROADCASTER */
 887:.\Generated_Source\PSoC4/BLE_1.c **** 
 888:.\Generated_Source\PSoC4/BLE_1.c **** 
ARM GAS  C:\Users\Rafael\AppData\Local\Temp\ccwrXay6.s 			page 17


 889:.\Generated_Source\PSoC4/BLE_1.c **** #if(CYBLE_GAP_ROLE_CENTRAL || CYBLE_GAP_ROLE_OBSERVER)
 890:.\Generated_Source\PSoC4/BLE_1.c **** 
 891:.\Generated_Source\PSoC4/BLE_1.c ****     /******************************************************************************
 892:.\Generated_Source\PSoC4/BLE_1.c ****     * Function Name: CyBle_GapcStartScan
 893:.\Generated_Source\PSoC4/BLE_1.c ****     ***************************************************************************//**
 894:.\Generated_Source\PSoC4/BLE_1.c ****     * 
 895:.\Generated_Source\PSoC4/BLE_1.c ****     *   This function is used for discovering GAP peripheral devices that are 
 896:.\Generated_Source\PSoC4/BLE_1.c ****     *   available for connection. It performs the scanning routine using the 
 897:.\Generated_Source\PSoC4/BLE_1.c ****     *   parameters entered in the component's customizer.
 898:.\Generated_Source\PSoC4/BLE_1.c ****     *   
 899:.\Generated_Source\PSoC4/BLE_1.c ****     *   As soon as the discovery operation starts, CYBLE_EVT_GAPC_SCAN_START_STOP 
 900:.\Generated_Source\PSoC4/BLE_1.c ****     *   event is generated. The CYBLE_EVT_GAPC_SCAN_PROGRESS_RESULT event is 
 901:.\Generated_Source\PSoC4/BLE_1.c ****     *   generated when a GAP peripheral device is located. There are three discovery
 902:.\Generated_Source\PSoC4/BLE_1.c ****     *   procedures can be selected in the customizer's GUI:
 903:.\Generated_Source\PSoC4/BLE_1.c ****     *   
 904:.\Generated_Source\PSoC4/BLE_1.c ****     *   * Observation procedure: A device performing the observer role receives only
 905:.\Generated_Source\PSoC4/BLE_1.c ****     *                            advertisement data from devices irrespective of 
 906:.\Generated_Source\PSoC4/BLE_1.c ****     *                            their discoverable mode settings. Advertisement 
 907:.\Generated_Source\PSoC4/BLE_1.c ****     *                            data received is provided by the event,      
 908:.\Generated_Source\PSoC4/BLE_1.c ****     *                            CYBLE_EVT_GAPC_SCAN_PROGRESS_RESULT. This procedure
 909:.\Generated_Source\PSoC4/BLE_1.c ****     *                            requires the scanType sub parameter to be passive
 910:.\Generated_Source\PSoC4/BLE_1.c ****     *                            scanning. 
 911:.\Generated_Source\PSoC4/BLE_1.c ****     *   
 912:.\Generated_Source\PSoC4/BLE_1.c ****     *   * Limited Discovery procedure: A device performing the limited discovery
 913:.\Generated_Source\PSoC4/BLE_1.c ****     *                                  procedure receives advertisement data and 
 914:.\Generated_Source\PSoC4/BLE_1.c ****     *                                  scan# response data from devices in the 
 915:.\Generated_Source\PSoC4/BLE_1.c ****     *                                  limited discoverable mode only. Received data
 916:.\Generated_Source\PSoC4/BLE_1.c ****     *                                  is provided by the event, 
 917:.\Generated_Source\PSoC4/BLE_1.c ****     *                                  CYBLE_EVT_GAPC_SCAN_PROGRESS_RESULT. This 
 918:.\Generated_Source\PSoC4/BLE_1.c ****     *                                  procedure requires the scanType sub-parameter 
 919:.\Generated_Source\PSoC4/BLE_1.c ****     *                                  to be active scanning.
 920:.\Generated_Source\PSoC4/BLE_1.c ****     *   
 921:.\Generated_Source\PSoC4/BLE_1.c ****     *   * General Discovery procedure: A device performing the general discovery 
 922:.\Generated_Source\PSoC4/BLE_1.c ****     *                                  procedure receives the advertisement data and
 923:.\Generated_Source\PSoC4/BLE_1.c ****     *                                  scan response data from devices in both 
 924:.\Generated_Source\PSoC4/BLE_1.c ****     *                                  limited discoverable mode and the general 
 925:.\Generated_Source\PSoC4/BLE_1.c ****     *                                  discoverable mode. Received data is provided
 926:.\Generated_Source\PSoC4/BLE_1.c ****     *                                  by the event,
 927:.\Generated_Source\PSoC4/BLE_1.c ****     *                                  CYBLE_EVT_GAPC_SCAN_PROGRESS_RESULT. This 
 928:.\Generated_Source\PSoC4/BLE_1.c ****     *                                  procedure requires the scanType sub-parameter
 929:.\Generated_Source\PSoC4/BLE_1.c ****     *                                  to be active scanning.
 930:.\Generated_Source\PSoC4/BLE_1.c ****     *   
 931:.\Generated_Source\PSoC4/BLE_1.c ****     *   Every Advertisement / Scan response packet received results in a new event, 
 932:.\Generated_Source\PSoC4/BLE_1.c ****     *   CYBLE_EVT_GAPC_SCAN_PROGRESS_RESULT.
 933:.\Generated_Source\PSoC4/BLE_1.c ****     *   If 'scanTo' sub-parameter is a non-zero value, then upon commencement of 
 934:.\Generated_Source\PSoC4/BLE_1.c ****     *   discovery procedure and elapsed time = 'scanTo', CYBLE_EVT_TIMEOUT event
 935:.\Generated_Source\PSoC4/BLE_1.c ****     *   is generated with the event parameter indicating CYBLE_GAP_SCAN_TO.
 936:.\Generated_Source\PSoC4/BLE_1.c ****     *   Possible generated events are:
 937:.\Generated_Source\PSoC4/BLE_1.c ****     *   * CYBLE_EVT_GAPC_SCAN_START_STOP: If a device started or stopped scanning. 
 938:.\Generated_Source\PSoC4/BLE_1.c ****     *                                     Use CyBle_GetState() to determine the 
 939:.\Generated_Source\PSoC4/BLE_1.c ****     *                                     state. Sequential scanning could be 
 940:.\Generated_Source\PSoC4/BLE_1.c ****     *                                     started when CYBLE_STATE_DISCONNECTED 
 941:.\Generated_Source\PSoC4/BLE_1.c ****     *                                     state is returned. 
 942:.\Generated_Source\PSoC4/BLE_1.c ****     *   * CYBLE_EVT_GAPC_SCAN_PROGRESS_RESULT 
 943:.\Generated_Source\PSoC4/BLE_1.c ****     *   * CYBLE_EVT_TIMEOUT (CYBLE_GAP_SCAN_TO)
 944:.\Generated_Source\PSoC4/BLE_1.c ****     * 
 945:.\Generated_Source\PSoC4/BLE_1.c ****     *   \param scanningIntervalType:  Fast or slow scanning interval with
ARM GAS  C:\Users\Rafael\AppData\Local\Temp\ccwrXay6.s 			page 18


 946:.\Generated_Source\PSoC4/BLE_1.c ****     *       timings entered in Scan settings section of the customizer.
 947:.\Generated_Source\PSoC4/BLE_1.c ****     * 	  * CYBLE_SCANNING_FAST   0x00u
 948:.\Generated_Source\PSoC4/BLE_1.c ****     * 	  * CYBLE_SCANNING_SLOW   0x01u
 949:.\Generated_Source\PSoC4/BLE_1.c ****     * 	  * CYBLE_SCANNING_CUSTOM 0x02u
 950:.\Generated_Source\PSoC4/BLE_1.c ****     * 
 951:.\Generated_Source\PSoC4/BLE_1.c ****     * \return
 952:.\Generated_Source\PSoC4/BLE_1.c ****     *  CYBLE_API_RESULT_T : Return value indicates if the function succeeded or
 953:.\Generated_Source\PSoC4/BLE_1.c ****     *  failed. Following are the possible error codes.
 954:.\Generated_Source\PSoC4/BLE_1.c ****     *
 955:.\Generated_Source\PSoC4/BLE_1.c ****     *   Errors codes                       | Description
 956:.\Generated_Source\PSoC4/BLE_1.c ****     *   ---------------------------------- | -----------------------------------
 957:.\Generated_Source\PSoC4/BLE_1.c ****     *   CYBLE_ERROR_OK                     | On successful operation.
 958:.\Generated_Source\PSoC4/BLE_1.c ****     *   CYBLE_ERROR_STACK_INTERNAL         | An error occurred in the BLE stack.
 959:.\Generated_Source\PSoC4/BLE_1.c ****     *   CYBLE_ERROR_INVALID_PARAMETER      | On passing an invalid parameter.
 960:.\Generated_Source\PSoC4/BLE_1.c ****     *  
 961:.\Generated_Source\PSoC4/BLE_1.c ****     *******************************************************************************/
 962:.\Generated_Source\PSoC4/BLE_1.c ****     CYBLE_API_RESULT_T CyBle_GapcStartScan(uint8 scanningIntervalType)
 963:.\Generated_Source\PSoC4/BLE_1.c ****     {
 964:.\Generated_Source\PSoC4/BLE_1.c ****         CYBLE_API_RESULT_T apiResult;
 965:.\Generated_Source\PSoC4/BLE_1.c **** 
 966:.\Generated_Source\PSoC4/BLE_1.c ****         if(scanningIntervalType > CYBLE_SCANNING_CUSTOM)
 967:.\Generated_Source\PSoC4/BLE_1.c ****         {
 968:.\Generated_Source\PSoC4/BLE_1.c ****             apiResult = CYBLE_ERROR_INVALID_PARAMETER;
 969:.\Generated_Source\PSoC4/BLE_1.c ****         }
 970:.\Generated_Source\PSoC4/BLE_1.c ****         else
 971:.\Generated_Source\PSoC4/BLE_1.c ****         {
 972:.\Generated_Source\PSoC4/BLE_1.c ****             if(scanningIntervalType == CYBLE_SCANNING_FAST)
 973:.\Generated_Source\PSoC4/BLE_1.c ****             {
 974:.\Generated_Source\PSoC4/BLE_1.c ****                 cyBle_discoveryInfo.scanTo = CYBLE_FAST_SCAN_TIMEOUT;
 975:.\Generated_Source\PSoC4/BLE_1.c ****                 cyBle_discoveryInfo.scanIntv = CYBLE_FAST_SCAN_INTERVAL;
 976:.\Generated_Source\PSoC4/BLE_1.c ****                 cyBle_discoveryInfo.scanWindow = CYBLE_FAST_SCAN_WINDOW;
 977:.\Generated_Source\PSoC4/BLE_1.c ****             }
 978:.\Generated_Source\PSoC4/BLE_1.c ****             else if(scanningIntervalType == CYBLE_SCANNING_SLOW)
 979:.\Generated_Source\PSoC4/BLE_1.c ****             {
 980:.\Generated_Source\PSoC4/BLE_1.c ****                 cyBle_discoveryInfo.scanTo = CYBLE_SLOW_SCAN_TIMEOUT;
 981:.\Generated_Source\PSoC4/BLE_1.c ****                 cyBle_discoveryInfo.scanIntv = CYBLE_SLOW_SCAN_INTERVAL;
 982:.\Generated_Source\PSoC4/BLE_1.c ****                 cyBle_discoveryInfo.scanWindow = CYBLE_SLOW_SCAN_WINDOW;
 983:.\Generated_Source\PSoC4/BLE_1.c ****             }       
 984:.\Generated_Source\PSoC4/BLE_1.c ****             else /* Do not update scanning intervals */
 985:.\Generated_Source\PSoC4/BLE_1.c ****             {
 986:.\Generated_Source\PSoC4/BLE_1.c ****             }
 987:.\Generated_Source\PSoC4/BLE_1.c ****             
 988:.\Generated_Source\PSoC4/BLE_1.c ****             cyBle_scanningIntervalType = scanningIntervalType;
 989:.\Generated_Source\PSoC4/BLE_1.c ****             apiResult = CyBle_GapcStartDiscovery(&cyBle_discoveryInfo);
 990:.\Generated_Source\PSoC4/BLE_1.c ****         
 991:.\Generated_Source\PSoC4/BLE_1.c ****             if(CYBLE_ERROR_OK == apiResult)
 992:.\Generated_Source\PSoC4/BLE_1.c ****             {
 993:.\Generated_Source\PSoC4/BLE_1.c ****                 cyBle_eventHandlerFlag |= CYBLE_START_FLAG;
 994:.\Generated_Source\PSoC4/BLE_1.c ****             }
 995:.\Generated_Source\PSoC4/BLE_1.c ****         }
 996:.\Generated_Source\PSoC4/BLE_1.c ****        
 997:.\Generated_Source\PSoC4/BLE_1.c ****         return (apiResult);
 998:.\Generated_Source\PSoC4/BLE_1.c ****     }
 999:.\Generated_Source\PSoC4/BLE_1.c ****     
1000:.\Generated_Source\PSoC4/BLE_1.c ****     
1001:.\Generated_Source\PSoC4/BLE_1.c ****     /******************************************************************************
1002:.\Generated_Source\PSoC4/BLE_1.c ****     * Function Name: CyBle_GapcStopScan
ARM GAS  C:\Users\Rafael\AppData\Local\Temp\ccwrXay6.s 			page 19


1003:.\Generated_Source\PSoC4/BLE_1.c ****     ***************************************************************************//**
1004:.\Generated_Source\PSoC4/BLE_1.c ****     * 
1005:.\Generated_Source\PSoC4/BLE_1.c ****     *   This function used to stop the discovery of devices. On stopping discovery
1006:.\Generated_Source\PSoC4/BLE_1.c ****     *   operation, CYBLE_EVT_GAPC_SCAN_START_STOP event is generated. Application
1007:.\Generated_Source\PSoC4/BLE_1.c ****     *   layer needs to keep track of the function call made before receiving this
1008:.\Generated_Source\PSoC4/BLE_1.c ****     *   event to associate this event with either the start or stop discovery
1009:.\Generated_Source\PSoC4/BLE_1.c ****     *   function.
1010:.\Generated_Source\PSoC4/BLE_1.c ****     * 
1011:.\Generated_Source\PSoC4/BLE_1.c ****     *   Possible events generated are:
1012:.\Generated_Source\PSoC4/BLE_1.c ****     *    * CYBLE_EVT_GAPC_SCAN_START_STOP
1013:.\Generated_Source\PSoC4/BLE_1.c ****     * 
1014:.\Generated_Source\PSoC4/BLE_1.c ****     *  \return
1015:.\Generated_Source\PSoC4/BLE_1.c ****     *   None
1016:.\Generated_Source\PSoC4/BLE_1.c ****     * 
1017:.\Generated_Source\PSoC4/BLE_1.c ****     *******************************************************************************/
1018:.\Generated_Source\PSoC4/BLE_1.c ****     void CyBle_GapcStopScan(void)
1019:.\Generated_Source\PSoC4/BLE_1.c ****     {
1020:.\Generated_Source\PSoC4/BLE_1.c ****         CyBle_GapcStopDiscovery();
1021:.\Generated_Source\PSoC4/BLE_1.c ****         
1022:.\Generated_Source\PSoC4/BLE_1.c ****         cyBle_eventHandlerFlag |= CYBLE_STOP_FLAG;
1023:.\Generated_Source\PSoC4/BLE_1.c ****     }
1024:.\Generated_Source\PSoC4/BLE_1.c **** 
1025:.\Generated_Source\PSoC4/BLE_1.c ****     
1026:.\Generated_Source\PSoC4/BLE_1.c **** #endif /* CYBLE_GAP_ROLE_CENTRAL || CYBLE_GAP_ROLE_OBSERVER */
1027:.\Generated_Source\PSoC4/BLE_1.c **** 
1028:.\Generated_Source\PSoC4/BLE_1.c **** 
1029:.\Generated_Source\PSoC4/BLE_1.c **** #if(CYBLE_GAP_ROLE_CENTRAL)
1030:.\Generated_Source\PSoC4/BLE_1.c **** 
1031:.\Generated_Source\PSoC4/BLE_1.c ****     /******************************************************************************
1032:.\Generated_Source\PSoC4/BLE_1.c ****     * Function Name: CyBle_GapcConnectDevice
1033:.\Generated_Source\PSoC4/BLE_1.c ****     ***************************************************************************//**
1034:.\Generated_Source\PSoC4/BLE_1.c ****     * 
1035:.\Generated_Source\PSoC4/BLE_1.c ****     *  This function is used to send a connection request to the remote device with
1036:.\Generated_Source\PSoC4/BLE_1.c ****     *  the connection parameters set in the component customizer. This function needs
1037:.\Generated_Source\PSoC4/BLE_1.c ****     *  to be called only once after the target device is discovered by 
1038:.\Generated_Source\PSoC4/BLE_1.c ****     *  CyBle_GapcStartScan() and further scanning has stopped. Scanning is 
1039:.\Generated_Source\PSoC4/BLE_1.c ****     *  successfully stopped on invoking CyBle_GapcStopScan() and then receiving the
1040:.\Generated_Source\PSoC4/BLE_1.c ****     *  event CYBLE_EVT_GAPC_SCAN_START_STOP with sub-parameter 'success' = 0x01u.
1041:.\Generated_Source\PSoC4/BLE_1.c ****     *  
1042:.\Generated_Source\PSoC4/BLE_1.c ****     *  On successful connection, the following events are generated at the GAP 
1043:.\Generated_Source\PSoC4/BLE_1.c ****     *  Central device (as well as the GAP Peripheral device), in the following order.
1044:.\Generated_Source\PSoC4/BLE_1.c ****     *  * CYBLE_EVT_GATT_CONNECT_IND
1045:.\Generated_Source\PSoC4/BLE_1.c ****     *  * CYBLE_EVT_GAP_DEVICE_CONNECTED - If the device connects to a GAP Central and 
1046:.\Generated_Source\PSoC4/BLE_1.c ****     *    Link Layer Privacy is disabled in component customizer.
1047:.\Generated_Source\PSoC4/BLE_1.c ****     *  * CYBLE_EVT_GAP_ENHANCE_CONN_COMPLETE - If the device connects to a GAP Central and 
1048:.\Generated_Source\PSoC4/BLE_1.c ****     *    Link Layer Privacy is enabled in component customizer.
1049:.\Generated_Source\PSoC4/BLE_1.c ****     *  * CYBLE_EVT_GAP_DEVICE_CONNECTED
1050:.\Generated_Source\PSoC4/BLE_1.c ****     *  
1051:.\Generated_Source\PSoC4/BLE_1.c ****     *  A procedure is considered to have timed out if a connection response packet is 
1052:.\Generated_Source\PSoC4/BLE_1.c ****     *  not received within time set by cyBle_connectingTimeout global variable
1053:.\Generated_Source\PSoC4/BLE_1.c ****     *  (30 seconds by default). CYBLE_EVT_TIMEOUT event with CYBLE_GENERIC_TO parameter
1054:.\Generated_Source\PSoC4/BLE_1.c ****     *  will indicate about connection procedure timeout. Connection will automatically
1055:.\Generated_Source\PSoC4/BLE_1.c ****     *  be canceled and state will be changed to CYBLE_STATE_DISCONNECTED.
1056:.\Generated_Source\PSoC4/BLE_1.c ****     * 
1057:.\Generated_Source\PSoC4/BLE_1.c ****     *  \param address: The device address of the remote device to connect to. 
1058:.\Generated_Source\PSoC4/BLE_1.c ****     *  
1059:.\Generated_Source\PSoC4/BLE_1.c ****     * \return
ARM GAS  C:\Users\Rafael\AppData\Local\Temp\ccwrXay6.s 			page 20


1060:.\Generated_Source\PSoC4/BLE_1.c ****     *  CYBLE_API_RESULT_T : Return value indicates if the function succeeded or 
1061:.\Generated_Source\PSoC4/BLE_1.c ****     *  failed. Following are the possible error codes.
1062:.\Generated_Source\PSoC4/BLE_1.c ****     *
1063:.\Generated_Source\PSoC4/BLE_1.c ****     *   Errors codes                       | Description
1064:.\Generated_Source\PSoC4/BLE_1.c ****     *   ------------                       | -----------
1065:.\Generated_Source\PSoC4/BLE_1.c ****     *   CYBLE_ERROR_OK                     | On successful operation.
1066:.\Generated_Source\PSoC4/BLE_1.c ****     *   CYBLE_ERROR_STACK_INTERNAL         | On error occurred in the BLE stack.
1067:.\Generated_Source\PSoC4/BLE_1.c ****     *   CYBLE_ERROR_INVALID_PARAMETER      | On passing an invalid parameter.
1068:.\Generated_Source\PSoC4/BLE_1.c ****     *   CYBLE_ERROR_INVALID_STATE          | On calling this API not in Disconnected state.
1069:.\Generated_Source\PSoC4/BLE_1.c ****     *  
1070:.\Generated_Source\PSoC4/BLE_1.c ****     ******************************************************************************/
1071:.\Generated_Source\PSoC4/BLE_1.c ****     CYBLE_API_RESULT_T CyBle_GapcConnectDevice(const CYBLE_GAP_BD_ADDR_T * address)
1072:.\Generated_Source\PSoC4/BLE_1.c ****     {
1073:.\Generated_Source\PSoC4/BLE_1.c ****         CYBLE_API_RESULT_T apiResult;
1074:.\Generated_Source\PSoC4/BLE_1.c ****         uint8 i;
1075:.\Generated_Source\PSoC4/BLE_1.c **** 
1076:.\Generated_Source\PSoC4/BLE_1.c ****         if(CyBle_GetState() != CYBLE_STATE_DISCONNECTED)
1077:.\Generated_Source\PSoC4/BLE_1.c ****         {
1078:.\Generated_Source\PSoC4/BLE_1.c ****             apiResult = CYBLE_ERROR_INVALID_STATE;
1079:.\Generated_Source\PSoC4/BLE_1.c ****         }
1080:.\Generated_Source\PSoC4/BLE_1.c ****         else if(address == NULL)
1081:.\Generated_Source\PSoC4/BLE_1.c ****         {
1082:.\Generated_Source\PSoC4/BLE_1.c ****             apiResult = CYBLE_ERROR_INVALID_PARAMETER;
1083:.\Generated_Source\PSoC4/BLE_1.c ****         }
1084:.\Generated_Source\PSoC4/BLE_1.c ****         else
1085:.\Generated_Source\PSoC4/BLE_1.c ****         {
1086:.\Generated_Source\PSoC4/BLE_1.c ****             for(i = 0u; i < CYBLE_GAP_BD_ADDR_SIZE; i++)
1087:.\Generated_Source\PSoC4/BLE_1.c ****             {
1088:.\Generated_Source\PSoC4/BLE_1.c ****                 cyBle_connectionParameters.peerBdAddr[i] = address->bdAddr[i];
1089:.\Generated_Source\PSoC4/BLE_1.c ****             }
1090:.\Generated_Source\PSoC4/BLE_1.c ****             cyBle_connectionParameters.peerAddrType = address -> type;
1091:.\Generated_Source\PSoC4/BLE_1.c ****             apiResult = CyBle_GapcInitConnection(&cyBle_connectionParameters);
1092:.\Generated_Source\PSoC4/BLE_1.c ****             
1093:.\Generated_Source\PSoC4/BLE_1.c ****             if(apiResult == CYBLE_ERROR_OK)
1094:.\Generated_Source\PSoC4/BLE_1.c ****             {
1095:.\Generated_Source\PSoC4/BLE_1.c ****                 CyBle_SetState(CYBLE_STATE_CONNECTING);
1096:.\Generated_Source\PSoC4/BLE_1.c ****                 if(cyBle_connectingTimeout != 0u)
1097:.\Generated_Source\PSoC4/BLE_1.c ****                 {
1098:.\Generated_Source\PSoC4/BLE_1.c ****                     (void)CyBle_StartTimer(cyBle_connectingTimeout);
1099:.\Generated_Source\PSoC4/BLE_1.c ****                 }
1100:.\Generated_Source\PSoC4/BLE_1.c ****             }
1101:.\Generated_Source\PSoC4/BLE_1.c ****         }
1102:.\Generated_Source\PSoC4/BLE_1.c ****         return (apiResult);
1103:.\Generated_Source\PSoC4/BLE_1.c ****     }
1104:.\Generated_Source\PSoC4/BLE_1.c ****     
1105:.\Generated_Source\PSoC4/BLE_1.c **** 
1106:.\Generated_Source\PSoC4/BLE_1.c ****     /******************************************************************************
1107:.\Generated_Source\PSoC4/BLE_1.c ****     * Function Name: CyBle_GapcCancelDeviceConnection
1108:.\Generated_Source\PSoC4/BLE_1.c ****     ***************************************************************************//**
1109:.\Generated_Source\PSoC4/BLE_1.c ****     * 
1110:.\Generated_Source\PSoC4/BLE_1.c ****     *  This function cancels a previously initiated connection with the remote 
1111:.\Generated_Source\PSoC4/BLE_1.c ****     *  device. It is a blocking function. No event is generated on calling this 
1112:.\Generated_Source\PSoC4/BLE_1.c ****     *  function. If the devices are already connected then this function should not
1113:.\Generated_Source\PSoC4/BLE_1.c ****     *  be used. If you intend to disconnect from an existing connection, the function
1114:.\Generated_Source\PSoC4/BLE_1.c ****     *  CyBle_GapDisconnect() should be used.
1115:.\Generated_Source\PSoC4/BLE_1.c ****     * 
1116:.\Generated_Source\PSoC4/BLE_1.c ****     * \return
ARM GAS  C:\Users\Rafael\AppData\Local\Temp\ccwrXay6.s 			page 21


1117:.\Generated_Source\PSoC4/BLE_1.c ****     *  CYBLE_API_RESULT_T : Return value indicates if the function succeeded or 
1118:.\Generated_Source\PSoC4/BLE_1.c ****     *  failed. Following are the possible error codes.
1119:.\Generated_Source\PSoC4/BLE_1.c ****     *
1120:.\Generated_Source\PSoC4/BLE_1.c ****     *   Errors codes                       | Description
1121:.\Generated_Source\PSoC4/BLE_1.c ****     *   ---------------------------------- | --------------------------------------
1122:.\Generated_Source\PSoC4/BLE_1.c ****     *   CYBLE_ERROR_OK                     | On successful operation.
1123:.\Generated_Source\PSoC4/BLE_1.c ****     *   CYBLE_ERROR_STACK_INTERNAL         | An error occurred in the BLE stack.
1124:.\Generated_Source\PSoC4/BLE_1.c ****     *   CYBLE_ERROR_INVALID_STATE          | On calling this API not in Connecting state.
1125:.\Generated_Source\PSoC4/BLE_1.c ****     *  
1126:.\Generated_Source\PSoC4/BLE_1.c ****     *******************************************************************************/
1127:.\Generated_Source\PSoC4/BLE_1.c ****     CYBLE_API_RESULT_T CyBle_GapcCancelDeviceConnection(void)
1128:.\Generated_Source\PSoC4/BLE_1.c ****     {
1129:.\Generated_Source\PSoC4/BLE_1.c ****         CYBLE_API_RESULT_T apiResult;
1130:.\Generated_Source\PSoC4/BLE_1.c ****         
1131:.\Generated_Source\PSoC4/BLE_1.c ****         if(CyBle_GetState() != CYBLE_STATE_CONNECTING)
1132:.\Generated_Source\PSoC4/BLE_1.c ****         {
1133:.\Generated_Source\PSoC4/BLE_1.c ****             apiResult = CYBLE_ERROR_INVALID_STATE;
1134:.\Generated_Source\PSoC4/BLE_1.c ****         }
1135:.\Generated_Source\PSoC4/BLE_1.c ****         else 
1136:.\Generated_Source\PSoC4/BLE_1.c ****         {
1137:.\Generated_Source\PSoC4/BLE_1.c ****             apiResult = CyBle_GapcCancelConnection();
1138:.\Generated_Source\PSoC4/BLE_1.c ****             
1139:.\Generated_Source\PSoC4/BLE_1.c ****             if(cyBle_connectingTimeout != 0u)
1140:.\Generated_Source\PSoC4/BLE_1.c ****             {
1141:.\Generated_Source\PSoC4/BLE_1.c ****                 (void)CyBle_StopTimer();
1142:.\Generated_Source\PSoC4/BLE_1.c ****             }
1143:.\Generated_Source\PSoC4/BLE_1.c **** 
1144:.\Generated_Source\PSoC4/BLE_1.c ****             if(apiResult == CYBLE_ERROR_OK)
1145:.\Generated_Source\PSoC4/BLE_1.c ****             {
1146:.\Generated_Source\PSoC4/BLE_1.c ****                 CyBle_SetState(CYBLE_STATE_DISCONNECTED);
1147:.\Generated_Source\PSoC4/BLE_1.c ****             }
1148:.\Generated_Source\PSoC4/BLE_1.c ****         }
1149:.\Generated_Source\PSoC4/BLE_1.c ****         return (apiResult);
1150:.\Generated_Source\PSoC4/BLE_1.c ****     }    
1151:.\Generated_Source\PSoC4/BLE_1.c **** 
1152:.\Generated_Source\PSoC4/BLE_1.c ****     
1153:.\Generated_Source\PSoC4/BLE_1.c **** #endif /* CYBLE_GAP_ROLE_CENTRAL */
1154:.\Generated_Source\PSoC4/BLE_1.c **** 
1155:.\Generated_Source\PSoC4/BLE_1.c **** 
1156:.\Generated_Source\PSoC4/BLE_1.c **** #if(CYBLE_GATT_ROLE_SERVER)
1157:.\Generated_Source\PSoC4/BLE_1.c **** 
1158:.\Generated_Source\PSoC4/BLE_1.c **** #if(CYBLE_GAP_ROLE_PERIPHERAL)
1159:.\Generated_Source\PSoC4/BLE_1.c **** 
1160:.\Generated_Source\PSoC4/BLE_1.c ****         /******************************************************************************
1161:.\Generated_Source\PSoC4/BLE_1.c ****         * Function Name: CyBle_ChangeAdLocalName
1162:.\Generated_Source\PSoC4/BLE_1.c ****         ***************************************************************************//**
1163:.\Generated_Source\PSoC4/BLE_1.c ****         *  This API is used to set the local device name in the advertisement or scan 
1164:.\Generated_Source\PSoC4/BLE_1.c ****         *  response data structure.
1165:.\Generated_Source\PSoC4/BLE_1.c ****         * 
1166:.\Generated_Source\PSoC4/BLE_1.c ****         *  \param name: The local device name string to be set in advertisement data 
1167:.\Generated_Source\PSoC4/BLE_1.c ****         *            structure.
1168:.\Generated_Source\PSoC4/BLE_1.c ****         *  \param dest: 0 - advertisement structure, not zero value selects scan response
1169:.\Generated_Source\PSoC4/BLE_1.c ****         *              structure.
1170:.\Generated_Source\PSoC4/BLE_1.c ****         * 
1171:.\Generated_Source\PSoC4/BLE_1.c ****         * \return
1172:.\Generated_Source\PSoC4/BLE_1.c ****         *  None
1173:.\Generated_Source\PSoC4/BLE_1.c ****         *  
ARM GAS  C:\Users\Rafael\AppData\Local\Temp\ccwrXay6.s 			page 22


1174:.\Generated_Source\PSoC4/BLE_1.c ****         *******************************************************************************/
1175:.\Generated_Source\PSoC4/BLE_1.c ****         static void CyBle_ChangeAdLocalName(const char8 name[], uint8 dest)
1176:.\Generated_Source\PSoC4/BLE_1.c ****         {
  25              		.loc 1 1176 0
  26              		.cfi_startproc
  27              	.LVL0:
  28 0000 70B5     		push	{r4, r5, r6, lr}
  29              		.cfi_def_cfa_offset 16
  30              		.cfi_offset 4, -16
  31              		.cfi_offset 5, -12
  32              		.cfi_offset 6, -8
  33              		.cfi_offset 14, -4
  34              	.LVL1:
1177:.\Generated_Source\PSoC4/BLE_1.c ****             uint8 i;
1178:.\Generated_Source\PSoC4/BLE_1.c ****             uint8 flag = 0u;
1179:.\Generated_Source\PSoC4/BLE_1.c ****             uint8 adLength = 0u;
1180:.\Generated_Source\PSoC4/BLE_1.c ****             uint8 byteCounter = 0u;
1181:.\Generated_Source\PSoC4/BLE_1.c ****             uint8 *destBuffer;
1182:.\Generated_Source\PSoC4/BLE_1.c ****             uint8 maxLength;
1183:.\Generated_Source\PSoC4/BLE_1.c ****             
1184:.\Generated_Source\PSoC4/BLE_1.c ****             if(dest == 0u)      /* Destination - advertising structure */
  35              		.loc 1 1184 0
  36 0002 0029     		cmp	r1, #0
  37 0004 05D1     		bne	.L2
  38              	.LVL2:
1185:.\Generated_Source\PSoC4/BLE_1.c ****             {
1186:.\Generated_Source\PSoC4/BLE_1.c ****                 destBuffer = cyBle_discoveryData.advData;
1187:.\Generated_Source\PSoC4/BLE_1.c ****                 maxLength = cyBle_discoveryData.advDataLen;
  39              		.loc 1 1187 0
  40 0006 1A4C     		ldr	r4, .L15
  41 0008 E67F     		ldrb	r6, [r4, #31]
  42              	.LVL3:
  43              	.L4:
1188:.\Generated_Source\PSoC4/BLE_1.c ****             }
1189:.\Generated_Source\PSoC4/BLE_1.c ****             else                /* Destination - scan response structure */
1190:.\Generated_Source\PSoC4/BLE_1.c ****             {
1191:.\Generated_Source\PSoC4/BLE_1.c ****                 destBuffer = cyBle_scanRspData.scanRspData;
1192:.\Generated_Source\PSoC4/BLE_1.c ****                 maxLength = cyBle_scanRspData.scanRspDataLen;
1193:.\Generated_Source\PSoC4/BLE_1.c ****             }
1194:.\Generated_Source\PSoC4/BLE_1.c ****             
1195:.\Generated_Source\PSoC4/BLE_1.c ****             while((byteCounter < maxLength) && (0u == flag))
1196:.\Generated_Source\PSoC4/BLE_1.c ****             {
1197:.\Generated_Source\PSoC4/BLE_1.c ****                 adLength = destBuffer[byteCounter];
1198:.\Generated_Source\PSoC4/BLE_1.c ****                 
1199:.\Generated_Source\PSoC4/BLE_1.c ****                 if(0u != adLength)
1200:.\Generated_Source\PSoC4/BLE_1.c ****                 {
1201:.\Generated_Source\PSoC4/BLE_1.c ****                     /* Increment byte counter so it can point to AD type */
1202:.\Generated_Source\PSoC4/BLE_1.c ****                     byteCounter++;
1203:.\Generated_Source\PSoC4/BLE_1.c ****                     
1204:.\Generated_Source\PSoC4/BLE_1.c ****                     if((CYBLE_SHORT_LOCAL_NAME == destBuffer[byteCounter]) || 
1205:.\Generated_Source\PSoC4/BLE_1.c ****                        (CYBLE_COMPLETE_LOCAL_NAME == destBuffer[byteCounter]))
1206:.\Generated_Source\PSoC4/BLE_1.c ****                     {
1207:.\Generated_Source\PSoC4/BLE_1.c ****                         /* Start of the Local Name AD type was fount. Set flag and exit the loop. *
1208:.\Generated_Source\PSoC4/BLE_1.c ****                         flag = 1u;
  44              		.loc 1 1208 0
  45 000a 0023     		mov	r3, #0
  46 000c 0022     		mov	r2, #0
ARM GAS  C:\Users\Rafael\AppData\Local\Temp\ccwrXay6.s 			page 23


  47 000e 0025     		mov	r5, #0
  48 0010 0FE0     		b	.L3
  49              	.LVL4:
  50              	.L2:
1192:.\Generated_Source\PSoC4/BLE_1.c ****             }
  51              		.loc 1 1192 0
  52 0012 184C     		ldr	r4, .L15+4
  53 0014 E67F     		ldrb	r6, [r4, #31]
  54              	.LVL5:
  55 0016 F8E7     		b	.L4
  56              	.LVL6:
  57              	.L7:
1197:.\Generated_Source\PSoC4/BLE_1.c ****                 
  58              		.loc 1 1197 0
  59 0018 E25C     		ldrb	r2, [r4, r3]
  60              	.LVL7:
1199:.\Generated_Source\PSoC4/BLE_1.c ****                 {
  61              		.loc 1 1199 0
  62 001a 002A     		cmp	r2, #0
  63 001c 0DD0     		beq	.L5
1202:.\Generated_Source\PSoC4/BLE_1.c ****                     
  64              		.loc 1 1202 0
  65 001e 0133     		add	r3, r3, #1
  66              	.LVL8:
  67 0020 DBB2     		uxtb	r3, r3
  68              	.LVL9:
1204:.\Generated_Source\PSoC4/BLE_1.c ****                        (CYBLE_COMPLETE_LOCAL_NAME == destBuffer[byteCounter]))
  69              		.loc 1 1204 0
  70 0022 E15C     		ldrb	r1, [r4, r3]
  71 0024 0839     		sub	r1, r1, #8
  72 0026 0129     		cmp	r1, #1
  73 0028 02D9     		bls	.L14
1209:.\Generated_Source\PSoC4/BLE_1.c ****                     }
1210:.\Generated_Source\PSoC4/BLE_1.c ****                     else
1211:.\Generated_Source\PSoC4/BLE_1.c ****                     {
1212:.\Generated_Source\PSoC4/BLE_1.c ****                         byteCounter += adLength;
  74              		.loc 1 1212 0
  75 002a 9B18     		add	r3, r3, r2
  76              	.LVL10:
  77 002c DBB2     		uxtb	r3, r3
  78              	.LVL11:
  79 002e 00E0     		b	.L3
  80              	.L14:
1208:.\Generated_Source\PSoC4/BLE_1.c ****                     }
  81              		.loc 1 1208 0
  82 0030 0125     		mov	r5, #1
  83              	.LVL12:
  84              	.L3:
1195:.\Generated_Source\PSoC4/BLE_1.c ****             {
  85              		.loc 1 1195 0
  86 0032 B342     		cmp	r3, r6
  87 0034 01D2     		bcs	.L5
1195:.\Generated_Source\PSoC4/BLE_1.c ****             {
  88              		.loc 1 1195 0 is_stmt 0 discriminator 1
  89 0036 002D     		cmp	r5, #0
  90 0038 EED0     		beq	.L7
  91              	.L5:
ARM GAS  C:\Users\Rafael\AppData\Local\Temp\ccwrXay6.s 			page 24


1213:.\Generated_Source\PSoC4/BLE_1.c ****                     }
1214:.\Generated_Source\PSoC4/BLE_1.c ****                 }
1215:.\Generated_Source\PSoC4/BLE_1.c ****                 else
1216:.\Generated_Source\PSoC4/BLE_1.c ****                 {
1217:.\Generated_Source\PSoC4/BLE_1.c ****                     /* The end of advertisement data structure was encountered though exit the loop
1218:.\Generated_Source\PSoC4/BLE_1.c ****                     break;
1219:.\Generated_Source\PSoC4/BLE_1.c ****                 }
1220:.\Generated_Source\PSoC4/BLE_1.c ****             }
1221:.\Generated_Source\PSoC4/BLE_1.c ****             
1222:.\Generated_Source\PSoC4/BLE_1.c ****             if(0u != flag)
  92              		.loc 1 1222 0 is_stmt 1
  93 003a 002D     		cmp	r5, #0
  94 003c 16D0     		beq	.L1
1223:.\Generated_Source\PSoC4/BLE_1.c ****             {
1224:.\Generated_Source\PSoC4/BLE_1.c ****                 /* Reuse "adLength" to hold location of the last character of local name in 
1225:.\Generated_Source\PSoC4/BLE_1.c ****                    AD structure. */
1226:.\Generated_Source\PSoC4/BLE_1.c ****                 adLength += byteCounter;
  95              		.loc 1 1226 0
  96 003e D218     		add	r2, r2, r3
  97              	.LVL13:
  98 0040 D1B2     		uxtb	r1, r2
  99              	.LVL14:
1227:.\Generated_Source\PSoC4/BLE_1.c ****                 
1228:.\Generated_Source\PSoC4/BLE_1.c ****                 /* Increment byte counter to point to start of the local Name string */
1229:.\Generated_Source\PSoC4/BLE_1.c ****                 byteCounter++;
 100              		.loc 1 1229 0
 101 0042 0133     		add	r3, r3, #1
 102              	.LVL15:
 103 0044 DBB2     		uxtb	r3, r3
 104              	.LVL16:
1230:.\Generated_Source\PSoC4/BLE_1.c ****                 
1231:.\Generated_Source\PSoC4/BLE_1.c ****                 for(i = byteCounter; ((i < (adLength)) && (CYBLE_NULL_CHARCTER != name[i - byteCoun
 105              		.loc 1 1231 0
 106 0046 1A1C     		mov	r2, r3
 107 0048 02E0     		b	.L9
 108              	.LVL17:
 109              	.L11:
1232:.\Generated_Source\PSoC4/BLE_1.c ****                 {
1233:.\Generated_Source\PSoC4/BLE_1.c ****                     destBuffer[i] = (uint8)name[i - byteCounter];
 110              		.loc 1 1233 0 discriminator 4
 111 004a A554     		strb	r5, [r4, r2]
1231:.\Generated_Source\PSoC4/BLE_1.c ****                 {
 112              		.loc 1 1231 0 discriminator 4
 113 004c 0132     		add	r2, r2, #1
 114              	.LVL18:
 115 004e D2B2     		uxtb	r2, r2
 116              	.LVL19:
 117              	.L9:
1231:.\Generated_Source\PSoC4/BLE_1.c ****                 {
 118              		.loc 1 1231 0 is_stmt 0 discriminator 1
 119 0050 8A42     		cmp	r2, r1
 120 0052 09D2     		bcs	.L12
1231:.\Generated_Source\PSoC4/BLE_1.c ****                 {
 121              		.loc 1 1231 0 discriminator 3
 122 0054 D51A     		sub	r5, r2, r3
 123 0056 455D     		ldrb	r5, [r0, r5]
 124 0058 002D     		cmp	r5, #0
ARM GAS  C:\Users\Rafael\AppData\Local\Temp\ccwrXay6.s 			page 25


 125 005a F6D1     		bne	.L11
 126 005c 04E0     		b	.L12
 127              	.LVL20:
 128              	.L13:
1234:.\Generated_Source\PSoC4/BLE_1.c ****                 }
1235:.\Generated_Source\PSoC4/BLE_1.c ****                 
1236:.\Generated_Source\PSoC4/BLE_1.c ****                 /* This loop handles the case when new local name is shorted than old one.
1237:.\Generated_Source\PSoC4/BLE_1.c ****                    In this case all remaining characters should be null characters. */
1238:.\Generated_Source\PSoC4/BLE_1.c ****                 while(adLength > i)
1239:.\Generated_Source\PSoC4/BLE_1.c ****                 {
1240:.\Generated_Source\PSoC4/BLE_1.c ****                     /* Terminate string */
1241:.\Generated_Source\PSoC4/BLE_1.c ****                     destBuffer[i] = (uint8)CYBLE_NULL_CHARCTER;
 129              		.loc 1 1241 0 is_stmt 1
 130 005e A318     		add	r3, r4, r2
 131 0060 0020     		mov	r0, #0
 132 0062 1870     		strb	r0, [r3]
1242:.\Generated_Source\PSoC4/BLE_1.c ****                     i++;
 133              		.loc 1 1242 0
 134 0064 0132     		add	r2, r2, #1
 135              	.LVL21:
 136 0066 D2B2     		uxtb	r2, r2
 137              	.LVL22:
 138              	.L12:
1238:.\Generated_Source\PSoC4/BLE_1.c ****                 {
 139              		.loc 1 1238 0
 140 0068 9142     		cmp	r1, r2
 141 006a F8D8     		bhi	.L13
 142              	.LVL23:
 143              	.L1:
1243:.\Generated_Source\PSoC4/BLE_1.c ****                 }
1244:.\Generated_Source\PSoC4/BLE_1.c ****             }
1245:.\Generated_Source\PSoC4/BLE_1.c ****         }
 144              		.loc 1 1245 0
 145              		@ sp needed
 146              	.LVL24:
 147              	.LVL25:
 148 006c 70BD     		pop	{r4, r5, r6, pc}
 149              	.L16:
 150 006e C046     		.align	2
 151              	.L15:
 152 0070 00000000 		.word	.LANCHOR0
 153 0074 00000000 		.word	.LANCHOR1
 154              		.cfi_endproc
 155              	.LFE11:
 156              		.size	CyBle_ChangeAdLocalName, .-CyBle_ChangeAdLocalName
 157              		.section	.text.CyBle_ServiceInit,"ax",%progbits
 158              		.align	2
 159              		.global	CyBle_ServiceInit
 160              		.code	16
 161              		.thumb_func
 162              		.type	CyBle_ServiceInit, %function
 163              	CyBle_ServiceInit:
 164              	.LFB3:
 202:.\Generated_Source\PSoC4/BLE_1.c ****     #if(CYBLE_GATT_ROLE_CLIENT)
 165              		.loc 1 202 0
 166              		.cfi_startproc
 167 0000 08B5     		push	{r3, lr}
ARM GAS  C:\Users\Rafael\AppData\Local\Temp\ccwrXay6.s 			page 26


 168              		.cfi_def_cfa_offset 8
 169              		.cfi_offset 3, -8
 170              		.cfi_offset 14, -4
 256:.\Generated_Source\PSoC4/BLE_1.c ****     #endif /* CYBLE_CUSTOM */
 171              		.loc 1 256 0
 172 0002 FFF7FEFF 		bl	CyBle_CustomInit
 173              	.LVL26:
 338:.\Generated_Source\PSoC4/BLE_1.c **** 
 174              		.loc 1 338 0
 175              		@ sp needed
 176 0006 08BD     		pop	{r3, pc}
 177              		.cfi_endproc
 178              	.LFE3:
 179              		.size	CyBle_ServiceInit, .-CyBle_ServiceInit
 180              		.section	.text.CyBle_Init,"ax",%progbits
 181              		.align	2
 182              		.global	CyBle_Init
 183              		.code	16
 184              		.thumb_func
 185              		.type	CyBle_Init, %function
 186              	CyBle_Init:
 187              	.LFB2:
 153:.\Generated_Source\PSoC4/BLE_1.c ****     cyBle_eventHandlerFlag = 0u;
 188              		.loc 1 153 0
 189              		.cfi_startproc
 190 0000 10B5     		push	{r4, lr}
 191              		.cfi_def_cfa_offset 8
 192              		.cfi_offset 4, -8
 193              		.cfi_offset 14, -4
 154:.\Generated_Source\PSoC4/BLE_1.c ****     cyBle_busyStatus = CYBLE_STACK_STATE_FREE;
 194              		.loc 1 154 0
 195 0002 0024     		mov	r4, #0
 196 0004 064B     		ldr	r3, .L19
 197 0006 1C70     		strb	r4, [r3]
 155:.\Generated_Source\PSoC4/BLE_1.c **** 
 198              		.loc 1 155 0
 199 0008 064B     		ldr	r3, .L19+4
 200 000a 1C70     		strb	r4, [r3]
 158:.\Generated_Source\PSoC4/BLE_1.c ****     #endif /* (CYBLE_GAP_ROLE_PERIPHERAL || CYBLE_GAP_ROLE_BROADCASTER)  */
 201              		.loc 1 158 0
 202 000c 064B     		ldr	r3, .L19+8
 203 000e 1C70     		strb	r4, [r3]
 181:.\Generated_Source\PSoC4/BLE_1.c **** 
 204              		.loc 1 181 0
 205 0010 FFF7FEFF 		bl	CyBle_ServiceInit
 206              	.LVL27:
 184:.\Generated_Source\PSoC4/BLE_1.c ****         cyBle_peerBonding = CYBLE_GAP_BONDING_NONE;
 207              		.loc 1 184 0
 208 0014 054B     		ldr	r3, .L19+12
 209 0016 1C70     		strb	r4, [r3]
 185:.\Generated_Source\PSoC4/BLE_1.c ****     #endif  /* (CYBLE_BONDING_REQUIREMENT == CYBLE_BONDING_YES) */
 210              		.loc 1 185 0
 211 0018 054B     		ldr	r3, .L19+16
 212 001a 1C70     		strb	r4, [r3]
 188:.\Generated_Source\PSoC4/BLE_1.c **** 
 213              		.loc 1 188 0
 214              		@ sp needed
ARM GAS  C:\Users\Rafael\AppData\Local\Temp\ccwrXay6.s 			page 27


 215 001c 10BD     		pop	{r4, pc}
 216              	.L20:
 217 001e C046     		.align	2
 218              	.L19:
 219 0020 00000000 		.word	cyBle_eventHandlerFlag
 220 0024 00000000 		.word	cyBle_busyStatus
 221 0028 00000000 		.word	cyBle_advertisingIntervalType
 222 002c 00000000 		.word	cyBle_pendingFlashWrite
 223 0030 00000000 		.word	cyBle_peerBonding
 224              		.cfi_endproc
 225              	.LFE2:
 226              		.size	CyBle_Init, .-CyBle_Init
 227              		.section	.text.CyBle_Start,"ax",%progbits
 228              		.align	2
 229              		.global	CyBle_Start
 230              		.code	16
 231              		.thumb_func
 232              		.type	CyBle_Start, %function
 233              	CyBle_Start:
 234              	.LFB4:
 400:.\Generated_Source\PSoC4/BLE_1.c ****     CYBLE_API_RESULT_T apiResult = CYBLE_ERROR_OK;
 235              		.loc 1 400 0
 236              		.cfi_startproc
 237              	.LVL28:
 238 0000 10B5     		push	{r4, lr}
 239              		.cfi_def_cfa_offset 8
 240              		.cfi_offset 4, -8
 241              		.cfi_offset 14, -4
 242 0002 90B0     		sub	sp, sp, #64
 243              		.cfi_def_cfa_offset 72
 244 0004 041C     		mov	r4, r0
 245              	.LVL29:
 405:.\Generated_Source\PSoC4/BLE_1.c ****     {
 246              		.loc 1 405 0
 247 0006 0BA8     		add	r0, sp, #44
 248              	.LVL30:
 249 0008 2049     		ldr	r1, .L25
 250 000a 1422     		mov	r2, #20
 251 000c FFF7FEFF 		bl	memcpy
 252              	.LVL31:
 417:.\Generated_Source\PSoC4/BLE_1.c ****     {
 253              		.loc 1 417 0
 254 0010 2023     		mov	r3, #32
 255 0012 1F4A     		ldr	r2, .L25+4
 256 0014 D35C     		ldrb	r3, [r2, r3]
 257 0016 002B     		cmp	r3, #0
 258 0018 05D1     		bne	.L22
 419:.\Generated_Source\PSoC4/BLE_1.c ****         cyBle_initVar = 1u;
 259              		.loc 1 419 0
 260 001a FFF7FEFF 		bl	CyBle_Init
 261              	.LVL32:
 420:.\Generated_Source\PSoC4/BLE_1.c ****     }
 262              		.loc 1 420 0
 263 001e 0121     		mov	r1, #1
 264 0020 2023     		mov	r3, #32
 265 0022 1B4A     		ldr	r2, .L25+4
 266 0024 D154     		strb	r1, [r2, r3]
ARM GAS  C:\Users\Rafael\AppData\Local\Temp\ccwrXay6.s 			page 28


 267              	.L22:
 423:.\Generated_Source\PSoC4/BLE_1.c ****     {
 268              		.loc 1 423 0
 269 0026 002C     		cmp	r4, #0
 270 0028 2DD0     		beq	.L24
 425:.\Generated_Source\PSoC4/BLE_1.c ****         
 271              		.loc 1 425 0
 272 002a 1A4B     		ldr	r3, .L25+8
 273 002c 1C60     		str	r4, [r3]
 274              	.LBB2:
 444:.\Generated_Source\PSoC4/BLE_1.c ****             stackConfig.dleConfig = &dleConfigParams;
 275              		.loc 1 444 0
 276 002e 08A8     		add	r0, sp, #32
 277 0030 05AA     		add	r2, sp, #20
 278 0032 4260     		str	r2, [r0, #4]
 445:.\Generated_Source\PSoC4/BLE_1.c ****             
 279              		.loc 1 445 0
 280 0034 06AB     		add	r3, sp, #24
 281 0036 0893     		str	r3, [sp, #32]
 448:.\Generated_Source\PSoC4/BLE_1.c ****                                        CYBLE_SECURE_CONN_FEATURE;
 282              		.loc 1 448 0
 283 0038 0021     		mov	r1, #0
 284 003a 0181     		strh	r1, [r0, #8]
 452:.\Generated_Source\PSoC4/BLE_1.c ****             dleConfigParams.dleMaxRxCapability = CYBLE_LL_MAX_RX_PAYLOAD_SIZE;
 285              		.loc 1 452 0
 286 003c 1B31     		add	r1, r1, #27
 287 003e 1980     		strh	r1, [r3]
 453:.\Generated_Source\PSoC4/BLE_1.c ****             dleConfigParams.dleNumTxBuffer = CYBLE_LL_DEFAULT_NUM_ACL_TX_PACKETS;
 288              		.loc 1 453 0
 289 0040 5980     		strh	r1, [r3, #2]
 454:.\Generated_Source\PSoC4/BLE_1.c ****         #if(CYBLE_DLE_FEATURE_ENABLED)
 290              		.loc 1 454 0
 291 0042 1739     		sub	r1, r1, #23
 292 0044 1971     		strb	r1, [r3, #4]
 460:.\Generated_Source\PSoC4/BLE_1.c ****         #if(CYBLE_LL_PRIVACY_FEATURE_ENABLED)
 293              		.loc 1 460 0
 294 0046 0023     		mov	r3, #0
 295 0048 1370     		strb	r3, [r2]
 465:.\Generated_Source\PSoC4/BLE_1.c ****             }
 296              		.loc 1 465 0
 297 004a 1231     		add	r1, r1, #18
 298 004c 6944     		add	r1, r1, sp
 299 004e FFF7FEFF 		bl	CyBle_StackSetFeatureConfig
 300              	.LVL33:
 301              	.LBE2:
 468:.\Generated_Source\PSoC4/BLE_1.c ****         {
 302              		.loc 1 468 0
 303 0052 0028     		cmp	r0, #0
 304 0054 18D1     		bne	.L23
 473:.\Generated_Source\PSoC4/BLE_1.c ****                     CYBLE_STACK_RAM_SIZE - CYBLE_GATT_PREPARE_WRITE_BUFF_LEN, cyBle_stackDataBuff, 
 305              		.loc 1 473 0
 306 0056 0523     		mov	r3, #5
 307 0058 0093     		str	r3, [sp]
 308 005a 0F4B     		ldr	r3, .L25+12
 309 005c 0193     		str	r3, [sp, #4]
 310 005e 0F4B     		ldr	r3, .L25+16
 311 0060 0293     		str	r3, [sp, #8]
ARM GAS  C:\Users\Rafael\AppData\Local\Temp\ccwrXay6.s 			page 29


 312 0062 0F48     		ldr	r0, .L25+20
 313              	.LVL34:
 314 0064 0F49     		ldr	r1, .L25+24
 315 0066 AE22     		mov	r2, #174
 316 0068 1201     		lsl	r2, r2, #4
 317 006a 0BAB     		add	r3, sp, #44
 318 006c FFF7FEFF 		bl	CyBle_StackInit
 319              	.LVL35:
 486:.\Generated_Source\PSoC4/BLE_1.c ****             {
 320              		.loc 1 486 0
 321 0070 0028     		cmp	r0, #0
 322 0072 09D1     		bne	.L23
 488:.\Generated_Source\PSoC4/BLE_1.c ****                 
 323              		.loc 1 488 0
 324 0074 0122     		mov	r2, #1
 325 0076 0C4B     		ldr	r3, .L25+28
 326 0078 1A70     		strb	r2, [r3]
 495:.\Generated_Source\PSoC4/BLE_1.c ****             #endif /* CYBLE_GATT_ROLE_SERVER */
 327              		.loc 1 495 0
 328 007a 0C48     		ldr	r0, .L25+32
 329              	.LVL36:
 330 007c 1221     		mov	r1, #18
 331 007e 0E32     		add	r2, r2, #14
 332 0080 FFF7FEFF 		bl	CyBle_GattsDbRegister
 333              	.LVL37:
 334 0084 00E0     		b	.L23
 335              	.LVL38:
 336              	.L24:
 502:.\Generated_Source\PSoC4/BLE_1.c ****     }
 337              		.loc 1 502 0
 338 0086 0120     		mov	r0, #1
 339              	.LVL39:
 340              	.L23:
 506:.\Generated_Source\PSoC4/BLE_1.c **** 
 341              		.loc 1 506 0
 342 0088 10B0     		add	sp, sp, #64
 343              		@ sp needed
 344              	.LVL40:
 345 008a 10BD     		pop	{r4, pc}
 346              	.L26:
 347              		.align	2
 348              	.L25:
 349 008c 00000000 		.word	.LANCHOR2
 350 0090 00000000 		.word	.LANCHOR1
 351 0094 00000000 		.word	CyBle_ApplCallback
 352 0098 00000000 		.word	cyBle_flashStorage
 353 009c 79020000 		.word	633
 354 00a0 00000000 		.word	CyBle_EventHandler
 355 00a4 00000000 		.word	.LANCHOR3
 356 00a8 00000000 		.word	cyBle_state
 357 00ac 00000000 		.word	cyBle_gattDB
 358              		.cfi_endproc
 359              	.LFE4:
 360              		.size	CyBle_Start, .-CyBle_Start
 361              		.section	.text.CyBle_Stop,"ax",%progbits
 362              		.align	2
 363              		.global	CyBle_Stop
ARM GAS  C:\Users\Rafael\AppData\Local\Temp\ccwrXay6.s 			page 30


 364              		.code	16
 365              		.thumb_func
 366              		.type	CyBle_Stop, %function
 367              	CyBle_Stop:
 368              	.LFB5:
 522:.\Generated_Source\PSoC4/BLE_1.c ****     CyBle_Shutdown();                         /* Stop all ongoing activities */
 369              		.loc 1 522 0
 370              		.cfi_startproc
 371 0000 08B5     		push	{r3, lr}
 372              		.cfi_def_cfa_offset 8
 373              		.cfi_offset 3, -8
 374              		.cfi_offset 14, -4
 523:.\Generated_Source\PSoC4/BLE_1.c ****     CyBle_SetState(CYBLE_STATE_STOPPED);
 375              		.loc 1 523 0
 376 0002 FFF7FEFF 		bl	CyBle_Shutdown
 377              	.LVL41:
 524:.\Generated_Source\PSoC4/BLE_1.c ****     #if(CYBLE_SHARING_MODE_EXPORT)
 378              		.loc 1 524 0
 379 0006 0022     		mov	r2, #0
 380 0008 014B     		ldr	r3, .L28
 381 000a 1A70     		strb	r2, [r3]
 531:.\Generated_Source\PSoC4/BLE_1.c **** 
 382              		.loc 1 531 0
 383              		@ sp needed
 384 000c 08BD     		pop	{r3, pc}
 385              	.L29:
 386 000e C046     		.align	2
 387              	.L28:
 388 0010 00000000 		.word	cyBle_state
 389              		.cfi_endproc
 390              	.LFE5:
 391              		.size	CyBle_Stop, .-CyBle_Stop
 392              		.section	.text.CyBle_StoreBondingData,"ax",%progbits
 393              		.align	2
 394              		.global	CyBle_StoreBondingData
 395              		.code	16
 396              		.thumb_func
 397              		.type	CyBle_StoreBondingData, %function
 398              	CyBle_StoreBondingData:
 399              	.LFB6:
 575:.\Generated_Source\PSoC4/BLE_1.c ****     CYBLE_API_RESULT_T apiResult = CYBLE_ERROR_OK;
 400              		.loc 1 575 0
 401              		.cfi_startproc
 402              	.LVL42:
 403 0000 10B5     		push	{r4, lr}
 404              		.cfi_def_cfa_offset 8
 405              		.cfi_offset 4, -8
 406              		.cfi_offset 14, -4
 407 0002 86B0     		sub	sp, sp, #24
 408              		.cfi_def_cfa_offset 32
 409 0004 041C     		mov	r4, r0
 410              	.LVL43:
 579:.\Generated_Source\PSoC4/BLE_1.c ****     {
 411              		.loc 1 579 0
 412 0006 334B     		ldr	r3, .L41
 413 0008 1B78     		ldrb	r3, [r3]
 414 000a DB07     		lsl	r3, r3, #31
ARM GAS  C:\Users\Rafael\AppData\Local\Temp\ccwrXay6.s 			page 31


 415 000c 0BD5     		bpl	.L39
 581:.\Generated_Source\PSoC4/BLE_1.c ****         if(apiResult == CYBLE_ERROR_OK)
 416              		.loc 1 581 0
 417 000e FFF7FEFF 		bl	CyBle_StoreStackData
 418              	.LVL44:
 582:.\Generated_Source\PSoC4/BLE_1.c ****         {
 419              		.loc 1 582 0
 420 0012 0028     		cmp	r0, #0
 421 0014 0AD1     		bne	.L31
 584:.\Generated_Source\PSoC4/BLE_1.c ****             /* Change apiResult if there are more pending data to store */
 422              		.loc 1 584 0
 423 0016 2F4A     		ldr	r2, .L41
 424 0018 1378     		ldrb	r3, [r2]
 425 001a 0121     		mov	r1, #1
 426 001c 8B43     		bic	r3, r1
 427 001e 1370     		strb	r3, [r2]
 586:.\Generated_Source\PSoC4/BLE_1.c ****             {
 428              		.loc 1 586 0
 429 0020 9B07     		lsl	r3, r3, #30
 430 0022 02D4     		bmi	.L40
 431 0024 02E0     		b	.L31
 432              	.LVL45:
 433              	.L39:
 576:.\Generated_Source\PSoC4/BLE_1.c ****     
 434              		.loc 1 576 0
 435 0026 0020     		mov	r0, #0
 436              	.LVL46:
 437 0028 00E0     		b	.L31
 438              	.LVL47:
 439              	.L40:
 588:.\Generated_Source\PSoC4/BLE_1.c ****             }
 440              		.loc 1 588 0
 441 002a 2820     		mov	r0, #40
 442              	.LVL48:
 443              	.L31:
 594:.\Generated_Source\PSoC4/BLE_1.c ****         ((cyBle_pendingFlashWrite & CYBLE_PENDING_CCCD_FLASH_WRITE_BIT) != 0u) &&
 444              		.loc 1 594 0
 445 002c 0028     		cmp	r0, #0
 446 002e 01D0     		beq	.L32
 594:.\Generated_Source\PSoC4/BLE_1.c ****         ((cyBle_pendingFlashWrite & CYBLE_PENDING_CCCD_FLASH_WRITE_BIT) != 0u) &&
 447              		.loc 1 594 0 is_stmt 0 discriminator 2
 448 0030 002C     		cmp	r4, #0
 449 0032 18D0     		beq	.L33
 450              	.L32:
 595:.\Generated_Source\PSoC4/BLE_1.c ****         (cyBle_connHandle.bdHandle <= CYBLE_GAP_MAX_BONDED_DEVICE))
 451              		.loc 1 595 0 is_stmt 1 discriminator 3
 452 0034 274B     		ldr	r3, .L41
 453 0036 1B78     		ldrb	r3, [r3]
 594:.\Generated_Source\PSoC4/BLE_1.c ****         ((cyBle_pendingFlashWrite & CYBLE_PENDING_CCCD_FLASH_WRITE_BIT) != 0u) &&
 454              		.loc 1 594 0 discriminator 3
 455 0038 9B07     		lsl	r3, r3, #30
 456 003a 14D5     		bpl	.L33
 596:.\Generated_Source\PSoC4/BLE_1.c ****     {
 457              		.loc 1 596 0
 458 003c 264B     		ldr	r3, .L41+4
 459 003e 1978     		ldrb	r1, [r3]
 595:.\Generated_Source\PSoC4/BLE_1.c ****         (cyBle_connHandle.bdHandle <= CYBLE_GAP_MAX_BONDED_DEVICE))
ARM GAS  C:\Users\Rafael\AppData\Local\Temp\ccwrXay6.s 			page 32


 460              		.loc 1 595 0
 461 0040 0429     		cmp	r1, #4
 462 0042 10D8     		bhi	.L33
 598:.\Generated_Source\PSoC4/BLE_1.c ****                         cyBle_connHandle.bdHandle], CYBLE_GATT_DB_CCCD_COUNT, isForceWrite);
 463              		.loc 1 598 0
 464 0044 9E31     		add	r1, r1, #158
 465 0046 8900     		lsl	r1, r1, #2
 466 0048 244B     		ldr	r3, .L41+8
 467 004a C918     		add	r1, r1, r3
 468 004c 0131     		add	r1, r1, #1
 469 004e 2448     		ldr	r0, .L41+12
 470              	.LVL49:
 471 0050 0422     		mov	r2, #4
 472 0052 231C     		mov	r3, r4
 473 0054 FFF7FEFF 		bl	CyBle_StoreAppData
 474              	.LVL50:
 600:.\Generated_Source\PSoC4/BLE_1.c ****         {
 475              		.loc 1 600 0
 476 0058 0028     		cmp	r0, #0
 477 005a 04D1     		bne	.L33
 602:.\Generated_Source\PSoC4/BLE_1.c ****         }
 478              		.loc 1 602 0
 479 005c 1D4A     		ldr	r2, .L41
 480 005e 1378     		ldrb	r3, [r2]
 481 0060 0221     		mov	r1, #2
 482 0062 8B43     		bic	r3, r1
 483 0064 1370     		strb	r3, [r2]
 484              	.LVL51:
 485              	.L33:
 606:.\Generated_Source\PSoC4/BLE_1.c ****         ((cyBle_pendingFlashWrite & CYBLE_PENDING_CCCD_FLASH_CLEAR_MASK) != 0u) )
 486              		.loc 1 606 0
 487 0066 0028     		cmp	r0, #0
 488 0068 01D0     		beq	.L34
 606:.\Generated_Source\PSoC4/BLE_1.c ****         ((cyBle_pendingFlashWrite & CYBLE_PENDING_CCCD_FLASH_CLEAR_MASK) != 0u) )
 489              		.loc 1 606 0 is_stmt 0 discriminator 2
 490 006a 002C     		cmp	r4, #0
 491 006c 30D0     		beq	.L35
 492              	.L34:
 607:.\Generated_Source\PSoC4/BLE_1.c ****     {
 493              		.loc 1 607 0 is_stmt 1 discriminator 3
 494 006e 194B     		ldr	r3, .L41
 495 0070 1B78     		ldrb	r3, [r3]
 606:.\Generated_Source\PSoC4/BLE_1.c ****         ((cyBle_pendingFlashWrite & CYBLE_PENDING_CCCD_FLASH_CLEAR_MASK) != 0u) )
 496              		.loc 1 606 0 discriminator 3
 497 0072 0C22     		mov	r2, #12
 498 0074 1A42     		tst	r2, r3
 499 0076 2BD0     		beq	.L35
 609:.\Generated_Source\PSoC4/BLE_1.c ****         {
 500              		.loc 1 609 0
 501 0078 1B07     		lsl	r3, r3, #28
 502 007a 13D5     		bpl	.L36
 503              	.LBB3:
 614:.\Generated_Source\PSoC4/BLE_1.c **** 
 504              		.loc 1 614 0
 505 007c 0023     		mov	r3, #0
 506 007e 0193     		str	r3, [sp, #4]
 507 0080 0293     		str	r3, [sp, #8]
ARM GAS  C:\Users\Rafael\AppData\Local\Temp\ccwrXay6.s 			page 33


 508 0082 0393     		str	r3, [sp, #12]
 509 0084 0493     		str	r3, [sp, #16]
 510 0086 0593     		str	r3, [sp, #20]
 616:.\Generated_Source\PSoC4/BLE_1.c ****                 (const uint8 *)cyBle_flashStorage.attValuesCCCDFlashMemory, sizeof(defaultValuesCCC
 511              		.loc 1 616 0
 512 0088 01A8     		add	r0, sp, #4
 513              	.LVL52:
 514 008a 1649     		ldr	r1, .L41+16
 515 008c 0832     		add	r2, r2, #8
 516 008e 231C     		mov	r3, r4
 517 0090 FFF7FEFF 		bl	CyBle_StoreAppData
 518              	.LVL53:
 618:.\Generated_Source\PSoC4/BLE_1.c ****             {
 519              		.loc 1 618 0
 520 0094 0028     		cmp	r0, #0
 521 0096 1BD1     		bne	.L35
 620:.\Generated_Source\PSoC4/BLE_1.c ****             }
 522              		.loc 1 620 0
 523 0098 0E4A     		ldr	r2, .L41
 524 009a 1378     		ldrb	r3, [r2]
 525 009c 0821     		mov	r1, #8
 526 009e 8B43     		bic	r3, r1
 527 00a0 1370     		strb	r3, [r2]
 528 00a2 15E0     		b	.L35
 529              	.L36:
 530              	.LBE3:
 531              	.LBB4:
 625:.\Generated_Source\PSoC4/BLE_1.c ****             
 532              		.loc 1 625 0
 533 00a4 0023     		mov	r3, #0
 534 00a6 0193     		str	r3, [sp, #4]
 627:.\Generated_Source\PSoC4/BLE_1.c ****                                     cyBle_pendingFlashClearCccdHandle], CYBLE_GATT_DB_CCCD_COUNT, i
 535              		.loc 1 627 0
 536 00a8 2133     		add	r3, r3, #33
 537 00aa 0F4A     		ldr	r2, .L41+20
 538 00ac D15C     		ldrb	r1, [r2, r3]
 539 00ae 9E31     		add	r1, r1, #158
 540 00b0 8900     		lsl	r1, r1, #2
 541 00b2 0A4B     		ldr	r3, .L41+8
 542 00b4 C918     		add	r1, r1, r3
 543 00b6 0131     		add	r1, r1, #1
 544 00b8 01A8     		add	r0, sp, #4
 545              	.LVL54:
 546 00ba 0422     		mov	r2, #4
 547 00bc 231C     		mov	r3, r4
 548 00be FFF7FEFF 		bl	CyBle_StoreAppData
 549              	.LVL55:
 629:.\Generated_Source\PSoC4/BLE_1.c ****             {
 550              		.loc 1 629 0
 551 00c2 0028     		cmp	r0, #0
 552 00c4 04D1     		bne	.L35
 631:.\Generated_Source\PSoC4/BLE_1.c ****             }
 553              		.loc 1 631 0
 554 00c6 034A     		ldr	r2, .L41
 555 00c8 1378     		ldrb	r3, [r2]
 556 00ca 0421     		mov	r1, #4
 557 00cc 8B43     		bic	r3, r1
ARM GAS  C:\Users\Rafael\AppData\Local\Temp\ccwrXay6.s 			page 34


 558 00ce 1370     		strb	r3, [r2]
 559              	.LVL56:
 560              	.L35:
 561              	.LBE4:
 637:.\Generated_Source\PSoC4/BLE_1.c **** 
 562              		.loc 1 637 0
 563 00d0 06B0     		add	sp, sp, #24
 564              		@ sp needed
 565 00d2 10BD     		pop	{r4, pc}
 566              	.L42:
 567              		.align	2
 568              	.L41:
 569 00d4 00000000 		.word	cyBle_pendingFlashWrite
 570 00d8 00000000 		.word	cyBle_connHandle
 571 00dc 00000000 		.word	cyBle_flashStorage
 572 00e0 00000000 		.word	cyBle_attValuesCCCD
 573 00e4 79020000 		.word	cyBle_flashStorage+633
 574 00e8 00000000 		.word	.LANCHOR1
 575              		.cfi_endproc
 576              	.LFE6:
 577              		.size	CyBle_StoreBondingData, .-CyBle_StoreBondingData
 578              		.section	.text.CyBle_GapRemoveBondedDevice,"ax",%progbits
 579              		.align	2
 580              		.global	CyBle_GapRemoveBondedDevice
 581              		.code	16
 582              		.thumb_func
 583              		.type	CyBle_GapRemoveBondedDevice, %function
 584              	CyBle_GapRemoveBondedDevice:
 585              	.LFB7:
 673:.\Generated_Source\PSoC4/BLE_1.c ****     CYBLE_API_RESULT_T apiResult = CYBLE_ERROR_OK;
 586              		.loc 1 673 0
 587              		.cfi_startproc
 588              	.LVL57:
 589 0000 30B5     		push	{r4, r5, lr}
 590              		.cfi_def_cfa_offset 12
 591              		.cfi_offset 4, -12
 592              		.cfi_offset 5, -8
 593              		.cfi_offset 14, -4
 594 0002 85B0     		sub	sp, sp, #20
 595              		.cfi_def_cfa_offset 32
 596              	.LVL58:
 676:.\Generated_Source\PSoC4/BLE_1.c ****     {
 597              		.loc 1 676 0
 598 0004 184B     		ldr	r3, .L49
 599 0006 1D78     		ldrb	r5, [r3]
 600 0008 002D     		cmp	r5, #0
 601 000a 2AD1     		bne	.L48
 602 000c 041C     		mov	r4, r0
 603              	.LBB5:
 682:.\Generated_Source\PSoC4/BLE_1.c **** 
 604              		.loc 1 682 0
 605 000e 02A9     		add	r1, sp, #8
 606 0010 0023     		mov	r3, #0
 607 0012 0B70     		strb	r3, [r1]
 608 0014 4B70     		strb	r3, [r1, #1]
 609 0016 8B70     		strb	r3, [r1, #2]
 610 0018 CB70     		strb	r3, [r1, #3]
ARM GAS  C:\Users\Rafael\AppData\Local\Temp\ccwrXay6.s 			page 35


 611 001a 0B71     		strb	r3, [r1, #4]
 612 001c 4B71     		strb	r3, [r1, #5]
 613 001e 8B71     		strb	r3, [r1, #6]
 684:.\Generated_Source\PSoC4/BLE_1.c **** 	    {
 614              		.loc 1 684 0
 615 0020 0622     		mov	r2, #6
 616 0022 FFF7FEFF 		bl	memcmp
 617              	.LVL59:
 618 0026 0028     		cmp	r0, #0
 619 0028 04D1     		bne	.L45
 687:.\Generated_Source\PSoC4/BLE_1.c ****         }
 620              		.loc 1 687 0
 621 002a 0823     		mov	r3, #8
 622 002c 1D43     		orr	r5, r3
 623 002e 0E4B     		ldr	r3, .L49
 624 0030 1D70     		strb	r5, [r3]
 625 0032 10E0     		b	.L46
 626              	.L45:
 692:.\Generated_Source\PSoC4/BLE_1.c ****             if(apiResult == CYBLE_ERROR_OK)
 627              		.loc 1 692 0
 628 0034 6B46     		mov	r3, sp
 629 0036 D81D     		add	r0, r3, #7
 630 0038 211C     		mov	r1, r4
 631 003a FFF7FEFF 		bl	CyBle_GapGetPeerBdHandle
 632              	.LVL60:
 693:.\Generated_Source\PSoC4/BLE_1.c ****             {
 633              		.loc 1 693 0
 634 003e 0028     		cmp	r0, #0
 635 0040 09D1     		bne	.L46
 696:.\Generated_Source\PSoC4/BLE_1.c ****                 cyBle_pendingFlashClearCccdHandle = bDevHandle;
 636              		.loc 1 696 0
 637 0042 094A     		ldr	r2, .L49
 638 0044 1178     		ldrb	r1, [r2]
 639 0046 0423     		mov	r3, #4
 640 0048 0B43     		orr	r3, r1
 641 004a 1370     		strb	r3, [r2]
 697:.\Generated_Source\PSoC4/BLE_1.c ****             }
 642              		.loc 1 697 0
 643 004c 6B46     		mov	r3, sp
 644 004e D979     		ldrb	r1, [r3, #7]
 645 0050 2123     		mov	r3, #33
 646 0052 064A     		ldr	r2, .L49+4
 647 0054 D154     		strb	r1, [r2, r3]
 648              	.LVL61:
 649              	.L46:
 700:.\Generated_Source\PSoC4/BLE_1.c ****         {
 650              		.loc 1 700 0
 651 0056 0028     		cmp	r0, #0
 652 0058 04D1     		bne	.L44
 703:.\Generated_Source\PSoC4/BLE_1.c ****             #else
 653              		.loc 1 703 0
 654 005a 201C     		mov	r0, r4
 655              	.LVL62:
 656 005c FFF7FEFF 		bl	CyBle_GapRemoveDeviceFromWhiteList
 657              	.LVL63:
 658 0060 00E0     		b	.L44
 659              	.LVL64:
ARM GAS  C:\Users\Rafael\AppData\Local\Temp\ccwrXay6.s 			page 36


 660              	.L48:
 661              	.LBE5:
 712:.\Generated_Source\PSoC4/BLE_1.c ****     }
 662              		.loc 1 712 0
 663 0062 0220     		mov	r0, #2
 664              	.LVL65:
 665              	.L44:
 716:.\Generated_Source\PSoC4/BLE_1.c **** 
 666              		.loc 1 716 0
 667 0064 05B0     		add	sp, sp, #20
 668              		@ sp needed
 669 0066 30BD     		pop	{r4, r5, pc}
 670              	.L50:
 671              		.align	2
 672              	.L49:
 673 0068 00000000 		.word	cyBle_pendingFlashWrite
 674 006c 00000000 		.word	.LANCHOR1
 675              		.cfi_endproc
 676              	.LFE7:
 677              		.size	CyBle_GapRemoveBondedDevice, .-CyBle_GapRemoveBondedDevice
 678              		.section	.text.CyBle_GappStartAdvertisement,"ax",%progbits
 679              		.align	2
 680              		.global	CyBle_GappStartAdvertisement
 681              		.code	16
 682              		.thumb_func
 683              		.type	CyBle_GappStartAdvertisement, %function
 684              	CyBle_GappStartAdvertisement:
 685              	.LFB8:
 774:.\Generated_Source\PSoC4/BLE_1.c ****         CYBLE_API_RESULT_T apiResult;
 686              		.loc 1 774 0
 687              		.cfi_startproc
 688              	.LVL66:
 689 0000 08B5     		push	{r3, lr}
 690              		.cfi_def_cfa_offset 8
 691              		.cfi_offset 3, -8
 692              		.cfi_offset 14, -4
 777:.\Generated_Source\PSoC4/BLE_1.c ****         {
 693              		.loc 1 777 0
 694 0002 0228     		cmp	r0, #2
 695 0004 2ED8     		bhi	.L55
 781:.\Generated_Source\PSoC4/BLE_1.c ****         {   
 696              		.loc 1 781 0
 697 0006 1B4B     		ldr	r3, .L58
 698 0008 1B78     		ldrb	r3, [r3]
 699 000a 042B     		cmp	r3, #4
 700 000c 2CD1     		bne	.L56
 781:.\Generated_Source\PSoC4/BLE_1.c ****         {   
 701              		.loc 1 781 0 is_stmt 0 discriminator 1
 702 000e 1A4B     		ldr	r3, .L58+4
 703 0010 1B78     		ldrb	r3, [r3]
 704 0012 5B07     		lsl	r3, r3, #29
 705 0014 2BD4     		bmi	.L57
 783:.\Generated_Source\PSoC4/BLE_1.c ****             {
 706              		.loc 1 783 0 is_stmt 1
 707 0016 0028     		cmp	r0, #0
 708 0018 09D1     		bne	.L53
 785:.\Generated_Source\PSoC4/BLE_1.c ****                 cyBle_discoveryModeInfo.advParam->advIntvMin = CYBLE_FAST_ADV_INT_MIN;
ARM GAS  C:\Users\Rafael\AppData\Local\Temp\ccwrXay6.s 			page 37


 709              		.loc 1 785 0
 710 001a 184B     		ldr	r3, .L58+8
 711 001c 1E22     		mov	r2, #30
 712 001e 1A86     		strh	r2, [r3, #48]
 786:.\Generated_Source\PSoC4/BLE_1.c ****                 cyBle_discoveryModeInfo.advParam->advIntvMax = CYBLE_FAST_ADV_INT_MAX;
 713              		.loc 1 786 0
 714 0020 0232     		add	r2, r2, #2
 715 0022 596A     		ldr	r1, [r3, #36]
 716 0024 0A80     		strh	r2, [r1]
 787:.\Generated_Source\PSoC4/BLE_1.c ****             }
 717              		.loc 1 787 0
 718 0026 5B6A     		ldr	r3, [r3, #36]
 719 0028 1032     		add	r2, r2, #16
 720 002a 5A80     		strh	r2, [r3, #2]
 721 002c 0CE0     		b	.L54
 722              	.L53:
 789:.\Generated_Source\PSoC4/BLE_1.c ****             {
 723              		.loc 1 789 0
 724 002e 0128     		cmp	r0, #1
 725 0030 0AD1     		bne	.L54
 791:.\Generated_Source\PSoC4/BLE_1.c ****                 cyBle_discoveryModeInfo.advParam->advIntvMin = CYBLE_SLOW_ADV_INT_MIN;
 726              		.loc 1 791 0
 727 0032 124B     		ldr	r3, .L58+8
 728 0034 9622     		mov	r2, #150
 729 0036 1A86     		strh	r2, [r3, #48]
 792:.\Generated_Source\PSoC4/BLE_1.c ****                 cyBle_discoveryModeInfo.advParam->advIntvMax = CYBLE_SLOW_ADV_INT_MAX;
 730              		.loc 1 792 0
 731 0038 C822     		mov	r2, #200
 732 003a D200     		lsl	r2, r2, #3
 733 003c 596A     		ldr	r1, [r3, #36]
 734 003e 0A80     		strh	r2, [r1]
 793:.\Generated_Source\PSoC4/BLE_1.c ****             }       
 735              		.loc 1 793 0
 736 0040 5B6A     		ldr	r3, [r3, #36]
 737 0042 8022     		mov	r2, #128
 738 0044 D201     		lsl	r2, r2, #7
 739 0046 5A80     		strh	r2, [r3, #2]
 740              	.L54:
 798:.\Generated_Source\PSoC4/BLE_1.c ****             apiResult = CyBle_GappEnterDiscoveryMode(&cyBle_discoveryModeInfo);
 741              		.loc 1 798 0
 742 0048 0D4B     		ldr	r3, .L58+12
 743 004a 1870     		strb	r0, [r3]
 799:.\Generated_Source\PSoC4/BLE_1.c ****         
 744              		.loc 1 799 0
 745 004c 0B48     		ldr	r0, .L58+8
 746              	.LVL67:
 747 004e 2030     		add	r0, r0, #32
 748 0050 FFF7FEFF 		bl	CyBle_GappEnterDiscoveryMode
 749              	.LVL68:
 801:.\Generated_Source\PSoC4/BLE_1.c ****             {
 750              		.loc 1 801 0
 751 0054 0028     		cmp	r0, #0
 752 0056 0CD1     		bne	.L52
 803:.\Generated_Source\PSoC4/BLE_1.c ****             }
 753              		.loc 1 803 0
 754 0058 074A     		ldr	r2, .L58+4
 755 005a 1178     		ldrb	r1, [r2]
ARM GAS  C:\Users\Rafael\AppData\Local\Temp\ccwrXay6.s 			page 38


 756 005c 0423     		mov	r3, #4
 757 005e 0B43     		orr	r3, r1
 758 0060 1370     		strb	r3, [r2]
 759 0062 06E0     		b	.L52
 760              	.LVL69:
 761              	.L55:
 779:.\Generated_Source\PSoC4/BLE_1.c ****         }
 762              		.loc 1 779 0
 763 0064 0120     		mov	r0, #1
 764              	.LVL70:
 765 0066 04E0     		b	.L52
 766              	.LVL71:
 767              	.L56:
 808:.\Generated_Source\PSoC4/BLE_1.c ****         }
 768              		.loc 1 808 0
 769 0068 0420     		mov	r0, #4
 770              	.LVL72:
 771 006a FF30     		add	r0, r0, #255
 772 006c 01E0     		b	.L52
 773              	.LVL73:
 774              	.L57:
 775 006e 0420     		mov	r0, #4
 776              	.LVL74:
 777 0070 FF30     		add	r0, r0, #255
 778              	.L52:
 779              	.LVL75:
 812:.\Generated_Source\PSoC4/BLE_1.c **** 
 780              		.loc 1 812 0
 781              		@ sp needed
 782 0072 08BD     		pop	{r3, pc}
 783              	.L59:
 784              		.align	2
 785              	.L58:
 786 0074 00000000 		.word	cyBle_state
 787 0078 00000000 		.word	cyBle_eventHandlerFlag
 788 007c 00000000 		.word	.LANCHOR0
 789 0080 00000000 		.word	cyBle_advertisingIntervalType
 790              		.cfi_endproc
 791              	.LFE8:
 792              		.size	CyBle_GappStartAdvertisement, .-CyBle_GappStartAdvertisement
 793              		.section	.text.CyBle_GappStopAdvertisement,"ax",%progbits
 794              		.align	2
 795              		.global	CyBle_GappStopAdvertisement
 796              		.code	16
 797              		.thumb_func
 798              		.type	CyBle_GappStopAdvertisement, %function
 799              	CyBle_GappStopAdvertisement:
 800              	.LFB9:
 835:.\Generated_Source\PSoC4/BLE_1.c ****         CyBle_GappExitDiscoveryMode();
 801              		.loc 1 835 0
 802              		.cfi_startproc
 803 0000 08B5     		push	{r3, lr}
 804              		.cfi_def_cfa_offset 8
 805              		.cfi_offset 3, -8
 806              		.cfi_offset 14, -4
 836:.\Generated_Source\PSoC4/BLE_1.c ****         cyBle_eventHandlerFlag |= CYBLE_STOP_FLAG;
 807              		.loc 1 836 0
ARM GAS  C:\Users\Rafael\AppData\Local\Temp\ccwrXay6.s 			page 39


 808 0002 FFF7FEFF 		bl	CyBle_GappExitDiscoveryMode
 809              	.LVL76:
 837:.\Generated_Source\PSoC4/BLE_1.c ****     }
 810              		.loc 1 837 0
 811 0006 034A     		ldr	r2, .L61
 812 0008 1178     		ldrb	r1, [r2]
 813 000a 0823     		mov	r3, #8
 814 000c 0B43     		orr	r3, r1
 815 000e 1370     		strb	r3, [r2]
 838:.\Generated_Source\PSoC4/BLE_1.c ****     
 816              		.loc 1 838 0
 817              		@ sp needed
 818 0010 08BD     		pop	{r3, pc}
 819              	.L62:
 820 0012 C046     		.align	2
 821              	.L61:
 822 0014 00000000 		.word	cyBle_eventHandlerFlag
 823              		.cfi_endproc
 824              	.LFE9:
 825              		.size	CyBle_GappStopAdvertisement, .-CyBle_GappStopAdvertisement
 826              		.section	.text.CyBle_ChangeAdDeviceAddress,"ax",%progbits
 827              		.align	2
 828              		.global	CyBle_ChangeAdDeviceAddress
 829              		.code	16
 830              		.thumb_func
 831              		.type	CyBle_ChangeAdDeviceAddress, %function
 832              	CyBle_ChangeAdDeviceAddress:
 833              	.LFB10:
 857:.\Generated_Source\PSoC4/BLE_1.c ****         uint8 i;
 834              		.loc 1 857 0
 835              		.cfi_startproc
 836              	.LVL77:
 884:.\Generated_Source\PSoC4/BLE_1.c ****   
 837              		.loc 1 884 0
 838              		@ sp needed
 839 0000 7047     		bx	lr
 840              		.cfi_endproc
 841              	.LFE10:
 842              		.size	CyBle_ChangeAdDeviceAddress, .-CyBle_ChangeAdDeviceAddress
 843 0002 C046     		.section	.text.CyBle_GapSetLocalName,"ax",%progbits
 844              		.align	2
 845              		.global	CyBle_GapSetLocalName
 846              		.code	16
 847              		.thumb_func
 848              		.type	CyBle_GapSetLocalName, %function
 849              	CyBle_GapSetLocalName:
 850              	.LFB12:
1246:.\Generated_Source\PSoC4/BLE_1.c ****         
1247:.\Generated_Source\PSoC4/BLE_1.c **** #endif /* (CYBLE_GAP_ROLE_PERIPHERAL) */  
1248:.\Generated_Source\PSoC4/BLE_1.c ****     
1249:.\Generated_Source\PSoC4/BLE_1.c ****     
1250:.\Generated_Source\PSoC4/BLE_1.c ****     /******************************************************************************
1251:.\Generated_Source\PSoC4/BLE_1.c ****     * Function Name: CyBle_GapSetLocalName
1252:.\Generated_Source\PSoC4/BLE_1.c ****     ***************************************************************************//**
1253:.\Generated_Source\PSoC4/BLE_1.c ****     *  This API is used to set the local device name - a Characteristic of the 
1254:.\Generated_Source\PSoC4/BLE_1.c ****     *  GAP Service. If the characteristic length entered in the component customizer
1255:.\Generated_Source\PSoC4/BLE_1.c ****     *  is shorter than the string specified by the "name" parameter, the local device
ARM GAS  C:\Users\Rafael\AppData\Local\Temp\ccwrXay6.s 			page 40


1256:.\Generated_Source\PSoC4/BLE_1.c ****     *  name will be cut to the length specified in the customizer.
1257:.\Generated_Source\PSoC4/BLE_1.c ****     * 
1258:.\Generated_Source\PSoC4/BLE_1.c ****     *  \param name: The local device name string. The name string to be written as
1259:.\Generated_Source\PSoC4/BLE_1.c ****     *              the local device name. It represents a UTF-8 encoded User
1260:.\Generated_Source\PSoC4/BLE_1.c ****     *              Friendly Descriptive Name for the device. The length of the local
1261:.\Generated_Source\PSoC4/BLE_1.c ****     *              device string is entered into the component customizer and it can
1262:.\Generated_Source\PSoC4/BLE_1.c ****     *              be set to a value from 0 to 248 bytes. If the name contained in
1263:.\Generated_Source\PSoC4/BLE_1.c ****     *              the parameter is shorter than the length from the customizer, the
1264:.\Generated_Source\PSoC4/BLE_1.c ****     *              end of the name is indicated by a NULL octet (0x00).
1265:.\Generated_Source\PSoC4/BLE_1.c ****     * 
1266:.\Generated_Source\PSoC4/BLE_1.c ****     * \return
1267:.\Generated_Source\PSoC4/BLE_1.c ****     *  CYBLE_API_RESULT_T : Return value indicates if the function succeeded or 
1268:.\Generated_Source\PSoC4/BLE_1.c ****     *  failed. Following are the possible error codes.
1269:.\Generated_Source\PSoC4/BLE_1.c ****     *
1270:.\Generated_Source\PSoC4/BLE_1.c ****     *   Errors codes                       | Description
1271:.\Generated_Source\PSoC4/BLE_1.c ****     *   ------------                       | -----------
1272:.\Generated_Source\PSoC4/BLE_1.c ****     *   CYBLE_ERROR_OK                     | Function completed successfully.
1273:.\Generated_Source\PSoC4/BLE_1.c ****     *   CYBLE_ERROR_INVALID_PARAMETER      | On specifying NULL as input parameter
1274:.\Generated_Source\PSoC4/BLE_1.c ****     *  
1275:.\Generated_Source\PSoC4/BLE_1.c ****     *******************************************************************************/
1276:.\Generated_Source\PSoC4/BLE_1.c ****     CYBLE_API_RESULT_T CyBle_GapSetLocalName(const char8 name[])
1277:.\Generated_Source\PSoC4/BLE_1.c ****     {
 851              		.loc 1 1277 0
 852              		.cfi_startproc
 853              	.LVL78:
 854 0000 10B5     		push	{r4, lr}
 855              		.cfi_def_cfa_offset 8
 856              		.cfi_offset 4, -8
 857              		.cfi_offset 14, -4
 858              	.LVL79:
1278:.\Generated_Source\PSoC4/BLE_1.c ****         CYBLE_API_RESULT_T apiResult = CYBLE_ERROR_OK;
1279:.\Generated_Source\PSoC4/BLE_1.c ****         uint8 i;
1280:.\Generated_Source\PSoC4/BLE_1.c ****         char8 *ptr;
1281:.\Generated_Source\PSoC4/BLE_1.c ****         uint8 charLen;
1282:.\Generated_Source\PSoC4/BLE_1.c **** 
1283:.\Generated_Source\PSoC4/BLE_1.c ****         if(NULL != name)
 859              		.loc 1 1283 0
 860 0002 0028     		cmp	r0, #0
 861 0004 1DD0     		beq	.L70
1284:.\Generated_Source\PSoC4/BLE_1.c ****         {
1285:.\Generated_Source\PSoC4/BLE_1.c ****             /* Get the pointer to the Device Name characteristic  */
1286:.\Generated_Source\PSoC4/BLE_1.c ****             ptr = (char8 *) CYBLE_GATT_DB_ATTR_GET_ATTR_GEN_PTR(CYBLE_GAP_DEVICE_NAME_INDEX + 1u);
 862              		.loc 1 1286 0
 863 0006 104B     		ldr	r3, .L71
 864 0008 9A6B     		ldr	r2, [r3, #56]
 865 000a 5468     		ldr	r4, [r2, #4]
 866              	.LVL80:
1287:.\Generated_Source\PSoC4/BLE_1.c **** 
1288:.\Generated_Source\PSoC4/BLE_1.c ****             /* First need to get the maximum length of the characteristic data in the GATT
1289:.\Generated_Source\PSoC4/BLE_1.c ****                 database to make sure there is enough place for the data. The length
1290:.\Generated_Source\PSoC4/BLE_1.c ****                 can't be longer than 248, so only the LSB of 16 bit of length is to
1291:.\Generated_Source\PSoC4/BLE_1.c ****                 be used. */
1292:.\Generated_Source\PSoC4/BLE_1.c ****             charLen = (uint8)CYBLE_GATT_DB_ATTR_GET_ATTR_GEN_MAX_LEN(CYBLE_GAP_DEVICE_NAME_INDEX + 
 867              		.loc 1 1292 0
 868 000c 998E     		ldrh	r1, [r3, #52]
 869 000e C9B2     		uxtb	r1, r1
 870              	.LVL81:
ARM GAS  C:\Users\Rafael\AppData\Local\Temp\ccwrXay6.s 			page 41


1293:.\Generated_Source\PSoC4/BLE_1.c **** 
1294:.\Generated_Source\PSoC4/BLE_1.c ****             /* Copy name into characteristic */
1295:.\Generated_Source\PSoC4/BLE_1.c ****             for(i = 0u; ((i < charLen) && (CYBLE_NULL_CHARCTER != name[i])); i++)
 871              		.loc 1 1295 0
 872 0010 0023     		mov	r3, #0
 873 0012 02E0     		b	.L66
 874              	.LVL82:
 875              	.L68:
1296:.\Generated_Source\PSoC4/BLE_1.c ****             {
1297:.\Generated_Source\PSoC4/BLE_1.c ****                 ptr[i] = name[i];
 876              		.loc 1 1297 0 discriminator 4
 877 0014 E254     		strb	r2, [r4, r3]
1295:.\Generated_Source\PSoC4/BLE_1.c ****             {
 878              		.loc 1 1295 0 discriminator 4
 879 0016 0133     		add	r3, r3, #1
 880              	.LVL83:
 881 0018 DBB2     		uxtb	r3, r3
 882              	.LVL84:
 883              	.L66:
1295:.\Generated_Source\PSoC4/BLE_1.c ****             {
 884              		.loc 1 1295 0 is_stmt 0 discriminator 1
 885 001a 8B42     		cmp	r3, r1
 886 001c 02D2     		bcs	.L67
1295:.\Generated_Source\PSoC4/BLE_1.c ****             {
 887              		.loc 1 1295 0 discriminator 3
 888 001e C25C     		ldrb	r2, [r0, r3]
 889 0020 002A     		cmp	r2, #0
 890 0022 F7D1     		bne	.L68
 891              	.L67:
1298:.\Generated_Source\PSoC4/BLE_1.c ****             }
1299:.\Generated_Source\PSoC4/BLE_1.c **** 
1300:.\Generated_Source\PSoC4/BLE_1.c ****             if(i < charLen)
 892              		.loc 1 1300 0 is_stmt 1
 893 0024 8B42     		cmp	r3, r1
 894 0026 02D2     		bcs	.L69
1301:.\Generated_Source\PSoC4/BLE_1.c ****             {
1302:.\Generated_Source\PSoC4/BLE_1.c ****                 /* Terminate string */
1303:.\Generated_Source\PSoC4/BLE_1.c ****                 ptr[i] = CYBLE_NULL_CHARCTER;
 895              		.loc 1 1303 0
 896 0028 E318     		add	r3, r4, r3
 897              	.LVL85:
 898 002a 0022     		mov	r2, #0
 899 002c 1A70     		strb	r2, [r3]
 900              	.L69:
 901 002e 041C     		mov	r4, r0
 902              	.LVL86:
1304:.\Generated_Source\PSoC4/BLE_1.c ****             }
1305:.\Generated_Source\PSoC4/BLE_1.c ****             
1306:.\Generated_Source\PSoC4/BLE_1.c ****             /* Set new actual length */
1307:.\Generated_Source\PSoC4/BLE_1.c ****             
1308:.\Generated_Source\PSoC4/BLE_1.c ****             /* Update device name in advertising and scan response structure */
1309:.\Generated_Source\PSoC4/BLE_1.c ****             #if(CYBLE_GAP_ROLE_PERIPHERAL)
1310:.\Generated_Source\PSoC4/BLE_1.c ****                 CyBle_ChangeAdLocalName(name, 0u);
 903              		.loc 1 1310 0
 904 0030 0021     		mov	r1, #0
 905              	.LVL87:
 906 0032 FFF7FEFF 		bl	CyBle_ChangeAdLocalName
ARM GAS  C:\Users\Rafael\AppData\Local\Temp\ccwrXay6.s 			page 42


 907              	.LVL88:
1311:.\Generated_Source\PSoC4/BLE_1.c ****                 CyBle_ChangeAdLocalName(name, 1u);
 908              		.loc 1 1311 0
 909 0036 201C     		mov	r0, r4
 910 0038 0121     		mov	r1, #1
 911 003a FFF7FEFF 		bl	CyBle_ChangeAdLocalName
 912              	.LVL89:
1278:.\Generated_Source\PSoC4/BLE_1.c ****         uint8 i;
 913              		.loc 1 1278 0
 914 003e 0020     		mov	r0, #0
 915 0040 00E0     		b	.L65
 916              	.LVL90:
 917              	.L70:
1312:.\Generated_Source\PSoC4/BLE_1.c ****             #endif /* (CYBLE_GAP_ROLE_PERIPHERAL) */
1313:.\Generated_Source\PSoC4/BLE_1.c ****         }
1314:.\Generated_Source\PSoC4/BLE_1.c ****         else
1315:.\Generated_Source\PSoC4/BLE_1.c ****         {
1316:.\Generated_Source\PSoC4/BLE_1.c ****             apiResult = CYBLE_ERROR_INVALID_PARAMETER;
 918              		.loc 1 1316 0
 919 0042 0120     		mov	r0, #1
 920              	.LVL91:
 921              	.L65:
1317:.\Generated_Source\PSoC4/BLE_1.c ****         }
1318:.\Generated_Source\PSoC4/BLE_1.c ****         
1319:.\Generated_Source\PSoC4/BLE_1.c ****         return(apiResult);
1320:.\Generated_Source\PSoC4/BLE_1.c ****     }
 922              		.loc 1 1320 0
 923              		@ sp needed
 924 0044 10BD     		pop	{r4, pc}
 925              	.L72:
 926 0046 C046     		.align	2
 927              	.L71:
 928 0048 00000000 		.word	cyBle_gattDB
 929              		.cfi_endproc
 930              	.LFE12:
 931              		.size	CyBle_GapSetLocalName, .-CyBle_GapSetLocalName
 932              		.section	.text.CyBle_GapGetLocalName,"ax",%progbits
 933              		.align	2
 934              		.global	CyBle_GapGetLocalName
 935              		.code	16
 936              		.thumb_func
 937              		.type	CyBle_GapGetLocalName, %function
 938              	CyBle_GapGetLocalName:
 939              	.LFB13:
1321:.\Generated_Source\PSoC4/BLE_1.c **** 
1322:.\Generated_Source\PSoC4/BLE_1.c **** 
1323:.\Generated_Source\PSoC4/BLE_1.c ****     /******************************************************************************
1324:.\Generated_Source\PSoC4/BLE_1.c ****     * Function Name: CyBle_GapGetLocalName
1325:.\Generated_Source\PSoC4/BLE_1.c ****     ***************************************************************************//**
1326:.\Generated_Source\PSoC4/BLE_1.c ****     *  
1327:.\Generated_Source\PSoC4/BLE_1.c ****     *  This API is used to read the local device name - a Characteristic of the 
1328:.\Generated_Source\PSoC4/BLE_1.c ****     *  GAP Service.
1329:.\Generated_Source\PSoC4/BLE_1.c ****     * 
1330:.\Generated_Source\PSoC4/BLE_1.c ****     * \param name: The local device name string. Used to read the local name to the
1331:.\Generated_Source\PSoC4/BLE_1.c ****     *             given string array. It represents a UTF-8 encoded User Friendly 
1332:.\Generated_Source\PSoC4/BLE_1.c ****     *             Descriptive Name for the device. The length of the local device
1333:.\Generated_Source\PSoC4/BLE_1.c ****     *             string is entered into the component customizer and it can be set
ARM GAS  C:\Users\Rafael\AppData\Local\Temp\ccwrXay6.s 			page 43


1334:.\Generated_Source\PSoC4/BLE_1.c ****     *             to a value from 0 to 248 bytes. If the name contained in the
1335:.\Generated_Source\PSoC4/BLE_1.c ****     *             parameter is shorter than the length from the customizer, the end
1336:.\Generated_Source\PSoC4/BLE_1.c ****     *             of the name is indicated by a NULL octet (0x00).
1337:.\Generated_Source\PSoC4/BLE_1.c ****     * 
1338:.\Generated_Source\PSoC4/BLE_1.c ****     * \return
1339:.\Generated_Source\PSoC4/BLE_1.c ****     *  CYBLE_API_RESULT_T : Return value indicates if the function succeeded or 
1340:.\Generated_Source\PSoC4/BLE_1.c ****     *  failed. Following are the possible error codes.
1341:.\Generated_Source\PSoC4/BLE_1.c ****     *
1342:.\Generated_Source\PSoC4/BLE_1.c ****     *   Errors codes                       | Description
1343:.\Generated_Source\PSoC4/BLE_1.c ****     *   ------------                       | -----------
1344:.\Generated_Source\PSoC4/BLE_1.c ****     *   CYBLE_ERROR_OK                     | Function completed successfully.
1345:.\Generated_Source\PSoC4/BLE_1.c ****     *   CYBLE_ERROR_INVALID_PARAMETER      | On specifying NULL as input parameter
1346:.\Generated_Source\PSoC4/BLE_1.c ****     *
1347:.\Generated_Source\PSoC4/BLE_1.c ****     *******************************************************************************/
1348:.\Generated_Source\PSoC4/BLE_1.c ****     CYBLE_API_RESULT_T CyBle_GapGetLocalName(char8 name[])
1349:.\Generated_Source\PSoC4/BLE_1.c ****     {
 940              		.loc 1 1349 0
 941              		.cfi_startproc
 942              	.LVL92:
 943 0000 10B5     		push	{r4, lr}
 944              		.cfi_def_cfa_offset 8
 945              		.cfi_offset 4, -8
 946              		.cfi_offset 14, -4
 947              	.LVL93:
1350:.\Generated_Source\PSoC4/BLE_1.c ****         CYBLE_API_RESULT_T apiResult = CYBLE_ERROR_OK;
1351:.\Generated_Source\PSoC4/BLE_1.c ****         uint8 charLen;
1352:.\Generated_Source\PSoC4/BLE_1.c ****         uint8 i;
1353:.\Generated_Source\PSoC4/BLE_1.c ****         char8 *ptr;
1354:.\Generated_Source\PSoC4/BLE_1.c **** 
1355:.\Generated_Source\PSoC4/BLE_1.c ****         if(NULL != name)
 948              		.loc 1 1355 0
 949 0002 0028     		cmp	r0, #0
 950 0004 12D0     		beq	.L78
1356:.\Generated_Source\PSoC4/BLE_1.c ****         {
1357:.\Generated_Source\PSoC4/BLE_1.c ****             /* Get the pointer to the Device Name characteristic  */
1358:.\Generated_Source\PSoC4/BLE_1.c ****             ptr = (char8 *) CYBLE_GATT_DB_ATTR_GET_ATTR_GEN_PTR(CYBLE_GAP_DEVICE_NAME_INDEX + 1u);
 951              		.loc 1 1358 0
 952 0006 0A4B     		ldr	r3, .L79
 953 0008 9B6B     		ldr	r3, [r3, #56]
 954 000a 5C68     		ldr	r4, [r3, #4]
 955              	.LVL94:
1359:.\Generated_Source\PSoC4/BLE_1.c **** 
1360:.\Generated_Source\PSoC4/BLE_1.c ****             /* First need to get the length of the characteristic data in the GATT
1361:.\Generated_Source\PSoC4/BLE_1.c ****                 database to make sure there is enough place for the data. The length
1362:.\Generated_Source\PSoC4/BLE_1.c ****                 can't be longer than 248, so only the LSB of 16 bit of length is to
1363:.\Generated_Source\PSoC4/BLE_1.c ****                 be used. */
1364:.\Generated_Source\PSoC4/BLE_1.c ****             charLen = (uint8)CYBLE_GATT_DB_ATTR_GET_ATTR_GEN_LEN(CYBLE_GAP_DEVICE_NAME_INDEX + 1u);
 956              		.loc 1 1364 0
 957 000c 1978     		ldrb	r1, [r3]
 958              	.LVL95:
1365:.\Generated_Source\PSoC4/BLE_1.c **** 
1366:.\Generated_Source\PSoC4/BLE_1.c ****             /* Copy name from characteristic */
1367:.\Generated_Source\PSoC4/BLE_1.c ****             for(i = 0u; ((i < charLen) && (CYBLE_NULL_CHARCTER != ptr[i])); i++)
 959              		.loc 1 1367 0
 960 000e 0023     		mov	r3, #0
 961 0010 02E0     		b	.L75
 962              	.LVL96:
ARM GAS  C:\Users\Rafael\AppData\Local\Temp\ccwrXay6.s 			page 44


 963              	.L77:
1368:.\Generated_Source\PSoC4/BLE_1.c ****             {
1369:.\Generated_Source\PSoC4/BLE_1.c ****                 name[i] = ptr[i];
 964              		.loc 1 1369 0 discriminator 4
 965 0012 C254     		strb	r2, [r0, r3]
1367:.\Generated_Source\PSoC4/BLE_1.c ****             {
 966              		.loc 1 1367 0 discriminator 4
 967 0014 0133     		add	r3, r3, #1
 968              	.LVL97:
 969 0016 DBB2     		uxtb	r3, r3
 970              	.LVL98:
 971              	.L75:
1367:.\Generated_Source\PSoC4/BLE_1.c ****             {
 972              		.loc 1 1367 0 is_stmt 0 discriminator 1
 973 0018 8B42     		cmp	r3, r1
 974 001a 02D2     		bcs	.L76
1367:.\Generated_Source\PSoC4/BLE_1.c ****             {
 975              		.loc 1 1367 0 discriminator 3
 976 001c E25C     		ldrb	r2, [r4, r3]
 977 001e 002A     		cmp	r2, #0
 978 0020 F7D1     		bne	.L77
 979              	.L76:
1370:.\Generated_Source\PSoC4/BLE_1.c ****             }
1371:.\Generated_Source\PSoC4/BLE_1.c **** 
1372:.\Generated_Source\PSoC4/BLE_1.c ****             /* Terminate string */
1373:.\Generated_Source\PSoC4/BLE_1.c ****             name[i] = CYBLE_NULL_CHARCTER;
 980              		.loc 1 1373 0 is_stmt 1
 981 0022 C318     		add	r3, r0, r3
 982              	.LVL99:
 983 0024 0022     		mov	r2, #0
 984 0026 1A70     		strb	r2, [r3]
1350:.\Generated_Source\PSoC4/BLE_1.c ****         uint8 charLen;
 985              		.loc 1 1350 0
 986 0028 0020     		mov	r0, #0
 987              	.LVL100:
 988 002a 00E0     		b	.L74
 989              	.LVL101:
 990              	.L78:
1374:.\Generated_Source\PSoC4/BLE_1.c ****         }
1375:.\Generated_Source\PSoC4/BLE_1.c ****         else
1376:.\Generated_Source\PSoC4/BLE_1.c ****         {
1377:.\Generated_Source\PSoC4/BLE_1.c ****             apiResult = CYBLE_ERROR_INVALID_PARAMETER;
 991              		.loc 1 1377 0
 992 002c 0120     		mov	r0, #1
 993              	.LVL102:
 994              	.L74:
1378:.\Generated_Source\PSoC4/BLE_1.c ****         }
1379:.\Generated_Source\PSoC4/BLE_1.c ****         
1380:.\Generated_Source\PSoC4/BLE_1.c ****         return(apiResult);
1381:.\Generated_Source\PSoC4/BLE_1.c ****     }
 995              		.loc 1 1381 0
 996              		@ sp needed
 997 002e 10BD     		pop	{r4, pc}
 998              	.L80:
 999              		.align	2
 1000              	.L79:
 1001 0030 00000000 		.word	cyBle_gattDB
ARM GAS  C:\Users\Rafael\AppData\Local\Temp\ccwrXay6.s 			page 45


 1002              		.cfi_endproc
 1003              	.LFE13:
 1004              		.size	CyBle_GapGetLocalName, .-CyBle_GapGetLocalName
 1005              		.section	.text.CyBle_Get16ByPtr,"ax",%progbits
 1006              		.align	2
 1007              		.global	CyBle_Get16ByPtr
 1008              		.code	16
 1009              		.thumb_func
 1010              		.type	CyBle_Get16ByPtr, %function
 1011              	CyBle_Get16ByPtr:
 1012              	.LFB14:
1382:.\Generated_Source\PSoC4/BLE_1.c **** 
1383:.\Generated_Source\PSoC4/BLE_1.c **** #endif /* (CYBLE_GATT_ROLE_SERVER) */
1384:.\Generated_Source\PSoC4/BLE_1.c **** 
1385:.\Generated_Source\PSoC4/BLE_1.c **** 
1386:.\Generated_Source\PSoC4/BLE_1.c **** /******************************************************************************
1387:.\Generated_Source\PSoC4/BLE_1.c **** * Function Name: CyBle_Get16ByPtr
1388:.\Generated_Source\PSoC4/BLE_1.c **** ***************************************************************************//**
1389:.\Generated_Source\PSoC4/BLE_1.c **** * 
1390:.\Generated_Source\PSoC4/BLE_1.c **** *  Returns the two-bytes value by using a pointer to the LSB.
1391:.\Generated_Source\PSoC4/BLE_1.c **** * 
1392:.\Generated_Source\PSoC4/BLE_1.c **** *  \param ptr: Pointer to the LSB of two-bytes data (little endian).
1393:.\Generated_Source\PSoC4/BLE_1.c **** * 
1394:.\Generated_Source\PSoC4/BLE_1.c **** *  \return
1395:.\Generated_Source\PSoC4/BLE_1.c **** *  uint16: Two-bytes data.
1396:.\Generated_Source\PSoC4/BLE_1.c **** * 
1397:.\Generated_Source\PSoC4/BLE_1.c **** ******************************************************************************/
1398:.\Generated_Source\PSoC4/BLE_1.c **** uint16 CyBle_Get16ByPtr(const uint8 ptr[])
1399:.\Generated_Source\PSoC4/BLE_1.c **** {
 1013              		.loc 1 1399 0
 1014              		.cfi_startproc
 1015              	.LVL103:
1400:.\Generated_Source\PSoC4/BLE_1.c ****     return ((uint16) ptr[0u] | ((uint16) (((uint16) ptr[1u]) << 8u)));
 1016              		.loc 1 1400 0
 1017 0000 0378     		ldrb	r3, [r0]
 1018 0002 4078     		ldrb	r0, [r0, #1]
 1019              	.LVL104:
 1020 0004 0002     		lsl	r0, r0, #8
 1021 0006 1843     		orr	r0, r3
1401:.\Generated_Source\PSoC4/BLE_1.c **** }
 1022              		.loc 1 1401 0
 1023              		@ sp needed
 1024 0008 7047     		bx	lr
 1025              		.cfi_endproc
 1026              	.LFE14:
 1027              		.size	CyBle_Get16ByPtr, .-CyBle_Get16ByPtr
 1028 000a C046     		.section	.text.CyBle_Set16ByPtr,"ax",%progbits
 1029              		.align	2
 1030              		.global	CyBle_Set16ByPtr
 1031              		.code	16
 1032              		.thumb_func
 1033              		.type	CyBle_Set16ByPtr, %function
 1034              	CyBle_Set16ByPtr:
 1035              	.LFB15:
1402:.\Generated_Source\PSoC4/BLE_1.c **** 
1403:.\Generated_Source\PSoC4/BLE_1.c **** 
1404:.\Generated_Source\PSoC4/BLE_1.c **** /******************************************************************************
ARM GAS  C:\Users\Rafael\AppData\Local\Temp\ccwrXay6.s 			page 46


1405:.\Generated_Source\PSoC4/BLE_1.c **** * Function Name: CyBle_Set16ByPtr
1406:.\Generated_Source\PSoC4/BLE_1.c **** ***************************************************************************//**
1407:.\Generated_Source\PSoC4/BLE_1.c **** * 
1408:.\Generated_Source\PSoC4/BLE_1.c **** *  Sets the two-bytes value by using a pointer to the LSB.
1409:.\Generated_Source\PSoC4/BLE_1.c **** * 
1410:.\Generated_Source\PSoC4/BLE_1.c **** *  \param ptr:    Pointer to the LSB of two-bytes data (little endian).
1411:.\Generated_Source\PSoC4/BLE_1.c **** *  \param value:  Two-bytes data to be written.
1412:.\Generated_Source\PSoC4/BLE_1.c **** * 
1413:.\Generated_Source\PSoC4/BLE_1.c **** *  \return
1414:.\Generated_Source\PSoC4/BLE_1.c **** *  None
1415:.\Generated_Source\PSoC4/BLE_1.c **** * 
1416:.\Generated_Source\PSoC4/BLE_1.c **** ******************************************************************************/
1417:.\Generated_Source\PSoC4/BLE_1.c **** void CyBle_Set16ByPtr(uint8 ptr[], uint16 value)
1418:.\Generated_Source\PSoC4/BLE_1.c **** {
 1036              		.loc 1 1418 0
 1037              		.cfi_startproc
 1038              	.LVL105:
1419:.\Generated_Source\PSoC4/BLE_1.c ****     ptr[0u] = (uint8) value;
 1039              		.loc 1 1419 0
 1040 0000 0170     		strb	r1, [r0]
1420:.\Generated_Source\PSoC4/BLE_1.c ****     ptr[1u] = (uint8) (value >> 8u);
 1041              		.loc 1 1420 0
 1042 0002 090A     		lsr	r1, r1, #8
 1043              	.LVL106:
 1044 0004 4170     		strb	r1, [r0, #1]
1421:.\Generated_Source\PSoC4/BLE_1.c **** }
 1045              		.loc 1 1421 0
 1046              		@ sp needed
 1047 0006 7047     		bx	lr
 1048              		.cfi_endproc
 1049              	.LFE15:
 1050              		.size	CyBle_Set16ByPtr, .-CyBle_Set16ByPtr
 1051              		.global	cyBle_sflashDeviceAddress
 1052              		.global	cyBle_deviceAddress
 1053              		.comm	CyBle_ApplCallback,4,4
 1054              		.comm	cyBle_pendingFlashWrite,1,1
 1055              		.comm	cyBle_peerBonding,1,1
 1056              		.global	cyBle_discoveryModeInfo
 1057              		.global	cyBle_scanRspData
 1058              		.global	cyBle_discoveryData
 1059              		.global	cyBle_discoveryParam
 1060              		.global	cyBle_stackMemoryRam
 1061              		.global	cyBle_initVar
 1062              		.section	.rodata
 1063              		.align	2
 1064              		.set	.LANCHOR2,. + 0
 1065              	.LC0:
 1066 0000 2400     		.short	36
 1067 0002 03       		.byte	3
 1068 0003 00       		.space	1
 1069 0004 3000     		.short	48
 1070 0006 01       		.byte	1
 1071 0007 00       		.space	1
 1072 0008 2800     		.short	40
 1073 000a 02       		.byte	2
 1074 000b 00       		.space	1
 1075 000c 2400     		.short	36
ARM GAS  C:\Users\Rafael\AppData\Local\Temp\ccwrXay6.s 			page 47


 1076 000e 01       		.byte	1
 1077 000f 00       		.space	1
 1078 0010 2400     		.short	36
 1079 0012 01       		.byte	1
 1080 0013 00       		.space	1
 1081              		.data
 1082              		.align	2
 1083              		.set	.LANCHOR0,. + 0
 1084              		.type	cyBle_discoveryData, %object
 1085              		.size	cyBle_discoveryData, 32
 1086              	cyBle_discoveryData:
 1087 0000 02       		.byte	2
 1088 0001 01       		.byte	1
 1089 0002 06       		.byte	6
 1090 0003 09       		.byte	9
 1091 0004 09       		.byte	9
 1092 0005 42       		.byte	66
 1093 0006 69       		.byte	105
 1094 0007 6F       		.byte	111
 1095 0008 53       		.byte	83
 1096 0009 65       		.byte	101
 1097 000a 6E       		.byte	110
 1098 000b 73       		.byte	115
 1099 000c 65       		.byte	101
 1100 000d 11       		.byte	17
 1101 000e 07       		.byte	7
 1102 000f F0       		.byte	-16
 1103 0010 34       		.byte	52
 1104 0011 9B       		.byte	-101
 1105 0012 5F       		.byte	95
 1106 0013 80       		.byte	-128
 1107 0014 00       		.byte	0
 1108 0015 00       		.byte	0
 1109 0016 80       		.byte	-128
 1110 0017 00       		.byte	0
 1111 0018 10       		.byte	16
 1112 0019 00       		.byte	0
 1113 001a 00       		.byte	0
 1114 001b B5       		.byte	-75
 1115 001c CA       		.byte	-54
 1116 001d 00       		.byte	0
 1117 001e 00       		.byte	0
 1118 001f 1F       		.byte	31
 1119              		.type	cyBle_discoveryModeInfo, %object
 1120              		.size	cyBle_discoveryModeInfo, 20
 1121              	cyBle_discoveryModeInfo:
 1122 0020 02       		.byte	2
 1123 0021 000000   		.space	3
 1124 0024 00000000 		.word	cyBle_discoveryParam
 1125 0028 00000000 		.word	cyBle_discoveryData
 1126 002c 00000000 		.word	cyBle_scanRspData
 1127 0030 1E00     		.short	30
 1128 0032 0000     		.space	2
 1129              		.type	cyBle_sflashDeviceAddress, %object
 1130              		.size	cyBle_sflashDeviceAddress, 4
 1131              	cyBle_sflashDeviceAddress:
 1132 0034 00F2FF0F 		.word	268431872
ARM GAS  C:\Users\Rafael\AppData\Local\Temp\ccwrXay6.s 			page 48


 1133              		.type	cyBle_deviceAddress, %object
 1134              		.size	cyBle_deviceAddress, 7
 1135              	cyBle_deviceAddress:
 1136 0038 00       		.byte	0
 1137 0039 00       		.byte	0
 1138 003a 00       		.byte	0
 1139 003b 50       		.byte	80
 1140 003c A0       		.byte	-96
 1141 003d 00       		.byte	0
 1142 003e 00       		.byte	0
 1143 003f 00       		.space	1
 1144              		.type	cyBle_discoveryParam, %object
 1145              		.size	cyBle_discoveryParam, 16
 1146              	cyBle_discoveryParam:
 1147 0040 2000     		.short	32
 1148 0042 3000     		.short	48
 1149 0044 00       		.byte	0
 1150 0045 00       		.byte	0
 1151 0046 00       		.byte	0
 1152 0047 00       		.byte	0
 1153 0048 00       		.byte	0
 1154 0049 00       		.byte	0
 1155 004a 50       		.byte	80
 1156 004b A0       		.byte	-96
 1157 004c 00       		.byte	0
 1158 004d 07       		.byte	7
 1159 004e 00       		.byte	0
 1160 004f 00       		.space	1
 1161              		.section	.noinit,"aw",%progbits
 1162              		.align	3
 1163              		.set	.LANCHOR3,. + 0
 1164              		.type	cyBle_stackMemoryRam, %object
 1165              		.size	cyBle_stackMemoryRam, 2784
 1166              	cyBle_stackMemoryRam:
 1167 0000 00000000 		.space	2784
 1167      00000000 
 1167      00000000 
 1167      00000000 
 1167      00000000 
 1168              		.bss
 1169              		.align	2
 1170              		.set	.LANCHOR1,. + 0
 1171              		.type	cyBle_scanRspData, %object
 1172              		.size	cyBle_scanRspData, 32
 1173              	cyBle_scanRspData:
 1174 0000 00000000 		.space	32
 1174      00000000 
 1174      00000000 
 1174      00000000 
 1174      00000000 
 1175              		.type	cyBle_initVar, %object
 1176              		.size	cyBle_initVar, 1
 1177              	cyBle_initVar:
 1178 0020 00       		.space	1
 1179              		.type	cyBle_pendingFlashClearCccdHandle, %object
 1180              		.size	cyBle_pendingFlashClearCccdHandle, 1
 1181              	cyBle_pendingFlashClearCccdHandle:
ARM GAS  C:\Users\Rafael\AppData\Local\Temp\ccwrXay6.s 			page 49


 1182 0021 00       		.space	1
 1183 0022 0000     		.text
 1184              	.Letext0:
 1185              		.file 2 ".\\Generated_Source\\PSoC4\\cytypes.h"
 1186              		.file 3 "c:\\program files (x86)\\cypress\\psoc creator\\3.3\\psoc creator\\import\\gnu\\arm\\4.9.
 1187              		.file 4 ".\\Generated_Source\\PSoC4\\BLE_1_Stack.h"
 1188              		.file 5 ".\\Generated_Source\\PSoC4\\BLE_1_StackGap.h"
 1189              		.file 6 ".\\Generated_Source\\PSoC4\\BLE_1_StackGatt.h"
 1190              		.file 7 ".\\Generated_Source\\PSoC4\\BLE_1_StackGattDb.h"
 1191              		.file 8 ".\\Generated_Source\\PSoC4\\BLE_1.h"
 1192              		.file 9 ".\\Generated_Source\\PSoC4\\BLE_1_gatt.h"
 1193              		.file 10 ".\\Generated_Source\\PSoC4\\BLE_1_eventHandler.h"
 1194              		.file 11 ".\\Generated_Source\\PSoC4\\BLE_1_custom.h"
 1195              		.file 12 ".\\Generated_Source\\PSoC4\\BLE_1_StackHostMain.h"
 1196              		.file 13 "c:\\program files (x86)\\cypress\\psoc creator\\3.3\\psoc creator\\import\\gnu\\arm\\4.9
 1197              		.section	.debug_info,"",%progbits
 1198              	.Ldebug_info0:
 1199 0000 B1100000 		.4byte	0x10b1
 1200 0004 0400     		.2byte	0x4
 1201 0006 00000000 		.4byte	.Ldebug_abbrev0
 1202 000a 04       		.byte	0x4
 1203 000b 01       		.uleb128 0x1
 1204 000c 3E0A0000 		.4byte	.LASF255
 1205 0010 01       		.byte	0x1
 1206 0011 36090000 		.4byte	.LASF256
 1207 0015 49020000 		.4byte	.LASF257
 1208 0019 00000000 		.4byte	.Ldebug_ranges0+0
 1209 001d 00000000 		.4byte	0
 1210 0021 00000000 		.4byte	.Ldebug_line0
 1211 0025 02       		.uleb128 0x2
 1212 0026 01       		.byte	0x1
 1213 0027 06       		.byte	0x6
 1214 0028 4A040000 		.4byte	.LASF0
 1215 002c 02       		.uleb128 0x2
 1216 002d 01       		.byte	0x1
 1217 002e 08       		.byte	0x8
 1218 002f E1040000 		.4byte	.LASF1
 1219 0033 02       		.uleb128 0x2
 1220 0034 02       		.byte	0x2
 1221 0035 05       		.byte	0x5
 1222 0036 1A130000 		.4byte	.LASF2
 1223 003a 02       		.uleb128 0x2
 1224 003b 02       		.byte	0x2
 1225 003c 07       		.byte	0x7
 1226 003d FD150000 		.4byte	.LASF3
 1227 0041 02       		.uleb128 0x2
 1228 0042 04       		.byte	0x4
 1229 0043 05       		.byte	0x5
 1230 0044 C7020000 		.4byte	.LASF4
 1231 0048 02       		.uleb128 0x2
 1232 0049 04       		.byte	0x4
 1233 004a 07       		.byte	0x7
 1234 004b A9090000 		.4byte	.LASF5
 1235 004f 02       		.uleb128 0x2
 1236 0050 08       		.byte	0x8
 1237 0051 05       		.byte	0x5
 1238 0052 F60B0000 		.4byte	.LASF6
ARM GAS  C:\Users\Rafael\AppData\Local\Temp\ccwrXay6.s 			page 50


 1239 0056 02       		.uleb128 0x2
 1240 0057 08       		.byte	0x8
 1241 0058 07       		.byte	0x7
 1242 0059 64100000 		.4byte	.LASF7
 1243 005d 03       		.uleb128 0x3
 1244 005e 04       		.byte	0x4
 1245 005f 05       		.byte	0x5
 1246 0060 696E7400 		.ascii	"int\000"
 1247 0064 02       		.uleb128 0x2
 1248 0065 04       		.byte	0x4
 1249 0066 07       		.byte	0x7
 1250 0067 CD0D0000 		.4byte	.LASF8
 1251 006b 04       		.uleb128 0x4
 1252 006c D1120000 		.4byte	.LASF9
 1253 0070 02       		.byte	0x2
 1254 0071 9801     		.2byte	0x198
 1255 0073 2C000000 		.4byte	0x2c
 1256 0077 04       		.uleb128 0x4
 1257 0078 62170000 		.4byte	.LASF10
 1258 007c 02       		.byte	0x2
 1259 007d 9901     		.2byte	0x199
 1260 007f 3A000000 		.4byte	0x3a
 1261 0083 04       		.uleb128 0x4
 1262 0084 B3000000 		.4byte	.LASF11
 1263 0088 02       		.byte	0x2
 1264 0089 9A01     		.2byte	0x19a
 1265 008b 48000000 		.4byte	0x48
 1266 008f 02       		.uleb128 0x2
 1267 0090 04       		.byte	0x4
 1268 0091 04       		.byte	0x4
 1269 0092 580D0000 		.4byte	.LASF12
 1270 0096 02       		.uleb128 0x2
 1271 0097 08       		.byte	0x8
 1272 0098 04       		.byte	0x4
 1273 0099 500C0000 		.4byte	.LASF13
 1274 009d 04       		.uleb128 0x4
 1275 009e 31010000 		.4byte	.LASF14
 1276 00a2 02       		.byte	0x2
 1277 00a3 A901     		.2byte	0x1a9
 1278 00a5 A9000000 		.4byte	0xa9
 1279 00a9 02       		.uleb128 0x2
 1280 00aa 01       		.byte	0x1
 1281 00ab 08       		.byte	0x8
 1282 00ac 09060000 		.4byte	.LASF15
 1283 00b0 05       		.uleb128 0x5
 1284 00b1 6B000000 		.4byte	0x6b
 1285 00b5 06       		.uleb128 0x6
 1286 00b6 1E000000 		.4byte	.LASF16
 1287 00ba 03       		.byte	0x3
 1288 00bb D4       		.byte	0xd4
 1289 00bc 64000000 		.4byte	0x64
 1290 00c0 02       		.uleb128 0x2
 1291 00c1 04       		.byte	0x4
 1292 00c2 07       		.byte	0x7
 1293 00c3 25000000 		.4byte	.LASF17
 1294 00c7 07       		.uleb128 0x7
 1295 00c8 04       		.byte	0x4
ARM GAS  C:\Users\Rafael\AppData\Local\Temp\ccwrXay6.s 			page 51


 1296 00c9 04       		.uleb128 0x4
 1297 00ca EA0F0000 		.4byte	.LASF18
 1298 00ce 04       		.byte	0x4
 1299 00cf 3101     		.2byte	0x131
 1300 00d1 D5000000 		.4byte	0xd5
 1301 00d5 08       		.uleb128 0x8
 1302 00d6 04       		.byte	0x4
 1303 00d7 DB000000 		.4byte	0xdb
 1304 00db 09       		.uleb128 0x9
 1305 00dc EB000000 		.4byte	0xeb
 1306 00e0 0A       		.uleb128 0xa
 1307 00e1 6B000000 		.4byte	0x6b
 1308 00e5 0A       		.uleb128 0xa
 1309 00e6 C7000000 		.4byte	0xc7
 1310 00ea 00       		.byte	0
 1311 00eb 0B       		.uleb128 0xb
 1312 00ec 01       		.byte	0x1
 1313 00ed 04       		.byte	0x4
 1314 00ee 4201     		.2byte	0x142
 1315 00f0 A8020000 		.4byte	0x2a8
 1316 00f4 0C       		.uleb128 0xc
 1317 00f5 4B060000 		.4byte	.LASF19
 1318 00f9 00       		.sleb128 0
 1319 00fa 0C       		.uleb128 0xc
 1320 00fb 3F030000 		.4byte	.LASF20
 1321 00ff 01       		.sleb128 1
 1322 0100 0C       		.uleb128 0xc
 1323 0101 7B100000 		.4byte	.LASF21
 1324 0105 02       		.sleb128 2
 1325 0106 0C       		.uleb128 0xc
 1326 0107 7E040000 		.4byte	.LASF22
 1327 010b 03       		.sleb128 3
 1328 010c 0C       		.uleb128 0xc
 1329 010d A5160000 		.4byte	.LASF23
 1330 0111 04       		.sleb128 4
 1331 0112 0C       		.uleb128 0xc
 1332 0113 83150000 		.4byte	.LASF24
 1333 0117 05       		.sleb128 5
 1334 0118 0C       		.uleb128 0xc
 1335 0119 FF0F0000 		.4byte	.LASF25
 1336 011d 06       		.sleb128 6
 1337 011e 0C       		.uleb128 0xc
 1338 011f 25140000 		.4byte	.LASF26
 1339 0123 20       		.sleb128 32
 1340 0124 0C       		.uleb128 0xc
 1341 0125 A7010000 		.4byte	.LASF27
 1342 0129 21       		.sleb128 33
 1343 012a 0C       		.uleb128 0xc
 1344 012b 910B0000 		.4byte	.LASF28
 1345 012f 22       		.sleb128 34
 1346 0130 0C       		.uleb128 0xc
 1347 0131 FD0E0000 		.4byte	.LASF29
 1348 0135 23       		.sleb128 35
 1349 0136 0C       		.uleb128 0xc
 1350 0137 F0080000 		.4byte	.LASF30
 1351 013b 24       		.sleb128 36
 1352 013c 0C       		.uleb128 0xc
ARM GAS  C:\Users\Rafael\AppData\Local\Temp\ccwrXay6.s 			page 52


 1353 013d 1C090000 		.4byte	.LASF31
 1354 0141 25       		.sleb128 37
 1355 0142 0C       		.uleb128 0xc
 1356 0143 7B120000 		.4byte	.LASF32
 1357 0147 26       		.sleb128 38
 1358 0148 0C       		.uleb128 0xc
 1359 0149 61000000 		.4byte	.LASF33
 1360 014d 27       		.sleb128 39
 1361 014e 0C       		.uleb128 0xc
 1362 014f 1F170000 		.4byte	.LASF34
 1363 0153 28       		.sleb128 40
 1364 0154 0C       		.uleb128 0xc
 1365 0155 29100000 		.4byte	.LASF35
 1366 0159 29       		.sleb128 41
 1367 015a 0C       		.uleb128 0xc
 1368 015b F60A0000 		.4byte	.LASF36
 1369 015f 2A       		.sleb128 42
 1370 0160 0C       		.uleb128 0xc
 1371 0161 640E0000 		.4byte	.LASF37
 1372 0165 2B       		.sleb128 43
 1373 0166 0C       		.uleb128 0xc
 1374 0167 9F150000 		.4byte	.LASF38
 1375 016b 2C       		.sleb128 44
 1376 016c 0C       		.uleb128 0xc
 1377 016d 2E000000 		.4byte	.LASF39
 1378 0171 2D       		.sleb128 45
 1379 0172 0C       		.uleb128 0xc
 1380 0173 E5120000 		.4byte	.LASF40
 1381 0177 2E       		.sleb128 46
 1382 0178 0C       		.uleb128 0xc
 1383 0179 17020000 		.4byte	.LASF41
 1384 017d 2F       		.sleb128 47
 1385 017e 0C       		.uleb128 0xc
 1386 017f E8050000 		.4byte	.LASF42
 1387 0183 30       		.sleb128 48
 1388 0184 0C       		.uleb128 0xc
 1389 0185 C40C0000 		.4byte	.LASF43
 1390 0189 31       		.sleb128 49
 1391 018a 0C       		.uleb128 0xc
 1392 018b 94060000 		.4byte	.LASF44
 1393 018f 32       		.sleb128 50
 1394 0190 0C       		.uleb128 0xc
 1395 0191 0D050000 		.4byte	.LASF45
 1396 0195 33       		.sleb128 51
 1397 0196 0C       		.uleb128 0xc
 1398 0197 9C130000 		.4byte	.LASF46
 1399 019b C000     		.sleb128 64
 1400 019d 0C       		.uleb128 0xc
 1401 019e 80000000 		.4byte	.LASF47
 1402 01a2 C100     		.sleb128 65
 1403 01a4 0C       		.uleb128 0xc
 1404 01a5 BA160000 		.4byte	.LASF48
 1405 01a9 C200     		.sleb128 66
 1406 01ab 0C       		.uleb128 0xc
 1407 01ac 46100000 		.4byte	.LASF49
 1408 01b0 C300     		.sleb128 67
 1409 01b2 0C       		.uleb128 0xc
ARM GAS  C:\Users\Rafael\AppData\Local\Temp\ccwrXay6.s 			page 53


 1410 01b3 EF040000 		.4byte	.LASF50
 1411 01b7 C400     		.sleb128 68
 1412 01b9 0C       		.uleb128 0xc
 1413 01ba A6040000 		.4byte	.LASF51
 1414 01be C500     		.sleb128 69
 1415 01c0 0C       		.uleb128 0xc
 1416 01c1 9E110000 		.4byte	.LASF52
 1417 01c5 C600     		.sleb128 70
 1418 01c7 0C       		.uleb128 0xc
 1419 01c8 80110000 		.4byte	.LASF53
 1420 01cc C700     		.sleb128 71
 1421 01ce 0C       		.uleb128 0xc
 1422 01cf C1050000 		.4byte	.LASF54
 1423 01d3 C800     		.sleb128 72
 1424 01d5 0C       		.uleb128 0xc
 1425 01d6 550F0000 		.4byte	.LASF55
 1426 01da C900     		.sleb128 73
 1427 01dc 0C       		.uleb128 0xc
 1428 01dd D2060000 		.4byte	.LASF56
 1429 01e1 CA00     		.sleb128 74
 1430 01e3 0C       		.uleb128 0xc
 1431 01e4 2C060000 		.4byte	.LASF57
 1432 01e8 CB00     		.sleb128 75
 1433 01ea 0C       		.uleb128 0xc
 1434 01eb A50E0000 		.4byte	.LASF58
 1435 01ef CC00     		.sleb128 76
 1436 01f1 0C       		.uleb128 0xc
 1437 01f2 11120000 		.4byte	.LASF59
 1438 01f6 CD00     		.sleb128 77
 1439 01f8 0C       		.uleb128 0xc
 1440 01f9 A9020000 		.4byte	.LASF60
 1441 01fd CE00     		.sleb128 78
 1442 01ff 0C       		.uleb128 0xc
 1443 0200 E70D0000 		.4byte	.LASF61
 1444 0204 CF00     		.sleb128 79
 1445 0206 0C       		.uleb128 0xc
 1446 0207 06140000 		.4byte	.LASF62
 1447 020b D000     		.sleb128 80
 1448 020d 0C       		.uleb128 0xc
 1449 020e F0060000 		.4byte	.LASF63
 1450 0212 D100     		.sleb128 81
 1451 0214 0C       		.uleb128 0xc
 1452 0215 86010000 		.4byte	.LASF64
 1453 0219 D200     		.sleb128 82
 1454 021b 0C       		.uleb128 0xc
 1455 021c 3D150000 		.4byte	.LASF65
 1456 0220 D300     		.sleb128 83
 1457 0222 0C       		.uleb128 0xc
 1458 0223 41170000 		.4byte	.LASF66
 1459 0227 D400     		.sleb128 84
 1460 0229 0C       		.uleb128 0xc
 1461 022a C70E0000 		.4byte	.LASF67
 1462 022e D500     		.sleb128 85
 1463 0230 0C       		.uleb128 0xc
 1464 0231 1A070000 		.4byte	.LASF68
 1465 0235 D600     		.sleb128 86
 1466 0237 0C       		.uleb128 0xc
ARM GAS  C:\Users\Rafael\AppData\Local\Temp\ccwrXay6.s 			page 54


 1467 0238 830D0000 		.4byte	.LASF69
 1468 023c D700     		.sleb128 87
 1469 023e 0C       		.uleb128 0xc
 1470 023f FC160000 		.4byte	.LASF70
 1471 0243 D800     		.sleb128 88
 1472 0245 0C       		.uleb128 0xc
 1473 0246 C3150000 		.4byte	.LASF71
 1474 024a F000     		.sleb128 112
 1475 024c 0C       		.uleb128 0xc
 1476 024d 9A080000 		.4byte	.LASF72
 1477 0251 F100     		.sleb128 113
 1478 0253 0C       		.uleb128 0xc
 1479 0254 06040000 		.4byte	.LASF73
 1480 0258 F200     		.sleb128 114
 1481 025a 0C       		.uleb128 0xc
 1482 025b E8130000 		.4byte	.LASF74
 1483 025f F300     		.sleb128 115
 1484 0261 0C       		.uleb128 0xc
 1485 0262 9A0F0000 		.4byte	.LASF75
 1486 0266 F400     		.sleb128 116
 1487 0268 0C       		.uleb128 0xc
 1488 0269 650B0000 		.4byte	.LASF76
 1489 026d F500     		.sleb128 117
 1490 026f 0C       		.uleb128 0xc
 1491 0270 A0050000 		.4byte	.LASF77
 1492 0274 F600     		.sleb128 118
 1493 0276 0C       		.uleb128 0xc
 1494 0277 B4100000 		.4byte	.LASF78
 1495 027b F700     		.sleb128 119
 1496 027d 0C       		.uleb128 0xc
 1497 027e 37010000 		.4byte	.LASF79
 1498 0282 F800     		.sleb128 120
 1499 0284 0C       		.uleb128 0xc
 1500 0285 34050000 		.4byte	.LASF80
 1501 0289 F900     		.sleb128 121
 1502 028b 0C       		.uleb128 0xc
 1503 028c D8160000 		.4byte	.LASF81
 1504 0290 FA00     		.sleb128 122
 1505 0292 0C       		.uleb128 0xc
 1506 0293 790C0000 		.4byte	.LASF82
 1507 0297 FA01     		.sleb128 250
 1508 0299 0C       		.uleb128 0xc
 1509 029a F7140000 		.4byte	.LASF83
 1510 029e FB01     		.sleb128 251
 1511 02a0 0C       		.uleb128 0xc
 1512 02a1 560E0000 		.4byte	.LASF84
 1513 02a5 FF01     		.sleb128 255
 1514 02a7 00       		.byte	0
 1515 02a8 0B       		.uleb128 0xb
 1516 02a9 02       		.byte	0x2
 1517 02aa 04       		.byte	0x4
 1518 02ab FF02     		.2byte	0x2ff
 1519 02ad 78030000 		.4byte	0x378
 1520 02b1 0C       		.uleb128 0xc
 1521 02b2 97040000 		.4byte	.LASF85
 1522 02b6 00       		.sleb128 0
 1523 02b7 0C       		.uleb128 0xc
ARM GAS  C:\Users\Rafael\AppData\Local\Temp\ccwrXay6.s 			page 55


 1524 02b8 B6070000 		.4byte	.LASF86
 1525 02bc 01       		.sleb128 1
 1526 02bd 0C       		.uleb128 0xc
 1527 02be 7E160000 		.4byte	.LASF87
 1528 02c2 02       		.sleb128 2
 1529 02c3 0C       		.uleb128 0xc
 1530 02c4 32080000 		.4byte	.LASF88
 1531 02c8 03       		.sleb128 3
 1532 02c9 0C       		.uleb128 0xc
 1533 02ca 86090000 		.4byte	.LASF89
 1534 02ce 04       		.sleb128 4
 1535 02cf 0C       		.uleb128 0xc
 1536 02d0 320C0000 		.4byte	.LASF90
 1537 02d4 05       		.sleb128 5
 1538 02d5 0C       		.uleb128 0xc
 1539 02d6 CA140000 		.4byte	.LASF91
 1540 02da 06       		.sleb128 6
 1541 02db 0C       		.uleb128 0xc
 1542 02dc B5060000 		.4byte	.LASF92
 1543 02e0 07       		.sleb128 7
 1544 02e1 0C       		.uleb128 0xc
 1545 02e2 3A0D0000 		.4byte	.LASF93
 1546 02e6 08       		.sleb128 8
 1547 02e7 0C       		.uleb128 0xc
 1548 02e8 6B140000 		.4byte	.LASF94
 1549 02ec 09       		.sleb128 9
 1550 02ed 0C       		.uleb128 0xc
 1551 02ee 75170000 		.4byte	.LASF95
 1552 02f2 0A       		.sleb128 10
 1553 02f3 0C       		.uleb128 0xc
 1554 02f4 DF010000 		.4byte	.LASF96
 1555 02f8 0B       		.sleb128 11
 1556 02f9 0C       		.uleb128 0xc
 1557 02fa 5E150000 		.4byte	.LASF97
 1558 02fe 0C       		.sleb128 12
 1559 02ff 0C       		.uleb128 0xc
 1560 0300 290E0000 		.4byte	.LASF98
 1561 0304 0D       		.sleb128 13
 1562 0305 0C       		.uleb128 0xc
 1563 0306 150A0000 		.4byte	.LASF99
 1564 030a 0E       		.sleb128 14
 1565 030b 0C       		.uleb128 0xc
 1566 030c 0D0C0000 		.4byte	.LASF100
 1567 0310 0F       		.sleb128 15
 1568 0311 0C       		.uleb128 0xc
 1569 0312 CE000000 		.4byte	.LASF101
 1570 0316 10       		.sleb128 16
 1571 0317 0C       		.uleb128 0xc
 1572 0318 E80C0000 		.4byte	.LASF102
 1573 031c 11       		.sleb128 17
 1574 031d 0C       		.uleb128 0xc
 1575 031e 52030000 		.4byte	.LASF103
 1576 0322 12       		.sleb128 18
 1577 0323 0C       		.uleb128 0xc
 1578 0324 22040000 		.4byte	.LASF104
 1579 0328 13       		.sleb128 19
 1580 0329 0C       		.uleb128 0xc
ARM GAS  C:\Users\Rafael\AppData\Local\Temp\ccwrXay6.s 			page 56


 1581 032a 570C0000 		.4byte	.LASF105
 1582 032e 27       		.sleb128 39
 1583 032f 0C       		.uleb128 0xc
 1584 0330 5E0D0000 		.4byte	.LASF106
 1585 0334 28       		.sleb128 40
 1586 0335 0C       		.uleb128 0xc
 1587 0336 FC000000 		.4byte	.LASF107
 1588 033a 29       		.sleb128 41
 1589 033b 0C       		.uleb128 0xc
 1590 033c 69130000 		.4byte	.LASF108
 1591 0340 2A       		.sleb128 42
 1592 0341 0C       		.uleb128 0xc
 1593 0342 BB090000 		.4byte	.LASF109
 1594 0346 2B       		.sleb128 43
 1595 0347 0C       		.uleb128 0xc
 1596 0348 F5100000 		.4byte	.LASF110
 1597 034c 2C       		.sleb128 44
 1598 034d 0C       		.uleb128 0xc
 1599 034e 9A070000 		.4byte	.LASF111
 1600 0352 FE01     		.sleb128 254
 1601 0354 0C       		.uleb128 0xc
 1602 0355 8A080000 		.4byte	.LASF112
 1603 0359 FF01     		.sleb128 255
 1604 035b 0C       		.uleb128 0xc
 1605 035c 3C0F0000 		.4byte	.LASF113
 1606 0360 8002     		.sleb128 256
 1607 0362 0C       		.uleb128 0xc
 1608 0363 230F0000 		.4byte	.LASF114
 1609 0367 8102     		.sleb128 257
 1610 0369 0C       		.uleb128 0xc
 1611 036a B1030000 		.4byte	.LASF115
 1612 036e 8202     		.sleb128 258
 1613 0370 0C       		.uleb128 0xc
 1614 0371 9A100000 		.4byte	.LASF116
 1615 0375 8302     		.sleb128 259
 1616 0377 00       		.byte	0
 1617 0378 04       		.uleb128 0x4
 1618 0379 16150000 		.4byte	.LASF117
 1619 037d 04       		.byte	0x4
 1620 037e 6B03     		.2byte	0x36b
 1621 0380 A8020000 		.4byte	0x2a8
 1622 0384 0D       		.uleb128 0xd
 1623 0385 07       		.byte	0x7
 1624 0386 04       		.byte	0x4
 1625 0387 2804     		.2byte	0x428
 1626 0389 A8030000 		.4byte	0x3a8
 1627 038d 0E       		.uleb128 0xe
 1628 038e 95140000 		.4byte	.LASF118
 1629 0392 04       		.byte	0x4
 1630 0393 2B04     		.2byte	0x42b
 1631 0395 A8030000 		.4byte	0x3a8
 1632 0399 00       		.byte	0
 1633 039a 0E       		.uleb128 0xe
 1634 039b 70010000 		.4byte	.LASF119
 1635 039f 04       		.byte	0x4
 1636 03a0 2D04     		.2byte	0x42d
 1637 03a2 6B000000 		.4byte	0x6b
ARM GAS  C:\Users\Rafael\AppData\Local\Temp\ccwrXay6.s 			page 57


 1638 03a6 06       		.byte	0x6
 1639 03a7 00       		.byte	0
 1640 03a8 0F       		.uleb128 0xf
 1641 03a9 6B000000 		.4byte	0x6b
 1642 03ad B8030000 		.4byte	0x3b8
 1643 03b1 10       		.uleb128 0x10
 1644 03b2 C0000000 		.4byte	0xc0
 1645 03b6 05       		.byte	0x5
 1646 03b7 00       		.byte	0
 1647 03b8 04       		.uleb128 0x4
 1648 03b9 0D110000 		.4byte	.LASF120
 1649 03bd 04       		.byte	0x4
 1650 03be 2E04     		.2byte	0x42e
 1651 03c0 84030000 		.4byte	0x384
 1652 03c4 0D       		.uleb128 0xd
 1653 03c5 04       		.byte	0x4
 1654 03c6 04       		.byte	0x4
 1655 03c7 3804     		.2byte	0x438
 1656 03c9 E8030000 		.4byte	0x3e8
 1657 03cd 0E       		.uleb128 0xe
 1658 03ce 57090000 		.4byte	.LASF121
 1659 03d2 04       		.byte	0x4
 1660 03d3 3B04     		.2byte	0x43b
 1661 03d5 77000000 		.4byte	0x77
 1662 03d9 00       		.byte	0
 1663 03da 0E       		.uleb128 0xe
 1664 03db 72040000 		.4byte	.LASF122
 1665 03df 04       		.byte	0x4
 1666 03e0 3D04     		.2byte	0x43d
 1667 03e2 6B000000 		.4byte	0x6b
 1668 03e6 02       		.byte	0x2
 1669 03e7 00       		.byte	0
 1670 03e8 04       		.uleb128 0x4
 1671 03e9 FA020000 		.4byte	.LASF123
 1672 03ed 04       		.byte	0x4
 1673 03ee 3E04     		.2byte	0x43e
 1674 03f0 C4030000 		.4byte	0x3c4
 1675 03f4 0D       		.uleb128 0xd
 1676 03f5 06       		.byte	0x6
 1677 03f6 04       		.byte	0x4
 1678 03f7 4204     		.2byte	0x442
 1679 03f9 25040000 		.4byte	0x425
 1680 03fd 0E       		.uleb128 0xe
 1681 03fe D00B0000 		.4byte	.LASF124
 1682 0402 04       		.byte	0x4
 1683 0403 4504     		.2byte	0x445
 1684 0405 77000000 		.4byte	0x77
 1685 0409 00       		.byte	0
 1686 040a 0E       		.uleb128 0xe
 1687 040b 31160000 		.4byte	.LASF125
 1688 040f 04       		.byte	0x4
 1689 0410 4804     		.2byte	0x448
 1690 0412 77000000 		.4byte	0x77
 1691 0416 02       		.byte	0x2
 1692 0417 0E       		.uleb128 0xe
 1693 0418 BE0D0000 		.4byte	.LASF126
 1694 041c 04       		.byte	0x4
ARM GAS  C:\Users\Rafael\AppData\Local\Temp\ccwrXay6.s 			page 58


 1695 041d 4B04     		.2byte	0x44b
 1696 041f 6B000000 		.4byte	0x6b
 1697 0423 04       		.byte	0x4
 1698 0424 00       		.byte	0
 1699 0425 04       		.uleb128 0x4
 1700 0426 90020000 		.4byte	.LASF127
 1701 042a 04       		.byte	0x4
 1702 042b 4C04     		.2byte	0x44c
 1703 042d F4030000 		.4byte	0x3f4
 1704 0431 0D       		.uleb128 0xd
 1705 0432 01       		.byte	0x1
 1706 0433 04       		.byte	0x4
 1707 0434 4F04     		.2byte	0x44f
 1708 0436 48040000 		.4byte	0x448
 1709 043a 0E       		.uleb128 0xe
 1710 043b 030A0000 		.4byte	.LASF128
 1711 043f 04       		.byte	0x4
 1712 0440 5204     		.2byte	0x452
 1713 0442 6B000000 		.4byte	0x6b
 1714 0446 00       		.byte	0
 1715 0447 00       		.byte	0
 1716 0448 04       		.uleb128 0x4
 1717 0449 0C0D0000 		.4byte	.LASF129
 1718 044d 04       		.byte	0x4
 1719 044e 5304     		.2byte	0x453
 1720 0450 31040000 		.4byte	0x431
 1721 0454 0D       		.uleb128 0xd
 1722 0455 0C       		.byte	0xc
 1723 0456 04       		.byte	0x4
 1724 0457 5904     		.2byte	0x459
 1725 0459 85040000 		.4byte	0x485
 1726 045d 0E       		.uleb128 0xe
 1727 045e 14030000 		.4byte	.LASF130
 1728 0462 04       		.byte	0x4
 1729 0463 5C04     		.2byte	0x45c
 1730 0465 85040000 		.4byte	0x485
 1731 0469 00       		.byte	0
 1732 046a 0E       		.uleb128 0xe
 1733 046b 21110000 		.4byte	.LASF131
 1734 046f 04       		.byte	0x4
 1735 0470 5F04     		.2byte	0x45f
 1736 0472 8B040000 		.4byte	0x48b
 1737 0476 04       		.byte	0x4
 1738 0477 0E       		.uleb128 0xe
 1739 0478 DA0D0000 		.4byte	.LASF132
 1740 047c 04       		.byte	0x4
 1741 047d 6504     		.2byte	0x465
 1742 047f 77000000 		.4byte	0x77
 1743 0483 08       		.byte	0x8
 1744 0484 00       		.byte	0
 1745 0485 08       		.uleb128 0x8
 1746 0486 04       		.byte	0x4
 1747 0487 25040000 		.4byte	0x425
 1748 048b 08       		.uleb128 0x8
 1749 048c 04       		.byte	0x4
 1750 048d 48040000 		.4byte	0x448
 1751 0491 04       		.uleb128 0x4
ARM GAS  C:\Users\Rafael\AppData\Local\Temp\ccwrXay6.s 			page 59


 1752 0492 B50B0000 		.4byte	.LASF133
 1753 0496 04       		.byte	0x4
 1754 0497 6604     		.2byte	0x466
 1755 0499 54040000 		.4byte	0x454
 1756 049d 11       		.uleb128 0x11
 1757 049e 01       		.byte	0x1
 1758 049f 05       		.byte	0x5
 1759 04a0 D0       		.byte	0xd0
 1760 04a1 C4040000 		.4byte	0x4c4
 1761 04a5 0C       		.uleb128 0xc
 1762 04a6 52160000 		.4byte	.LASF134
 1763 04aa 00       		.sleb128 0
 1764 04ab 0C       		.uleb128 0xc
 1765 04ac 6E0F0000 		.4byte	.LASF135
 1766 04b0 01       		.sleb128 1
 1767 04b1 0C       		.uleb128 0xc
 1768 04b2 C4130000 		.4byte	.LASF136
 1769 04b6 02       		.sleb128 2
 1770 04b7 0C       		.uleb128 0xc
 1771 04b8 DC030000 		.4byte	.LASF137
 1772 04bc 03       		.sleb128 3
 1773 04bd 0C       		.uleb128 0xc
 1774 04be 07080000 		.4byte	.LASF138
 1775 04c2 04       		.sleb128 4
 1776 04c3 00       		.byte	0
 1777 04c4 06       		.uleb128 0x6
 1778 04c5 940E0000 		.4byte	.LASF139
 1779 04c9 05       		.byte	0x5
 1780 04ca E0       		.byte	0xe0
 1781 04cb 9D040000 		.4byte	0x49d
 1782 04cf 0D       		.uleb128 0xd
 1783 04d0 10       		.byte	0x10
 1784 04d1 05       		.byte	0x5
 1785 04d2 0902     		.2byte	0x209
 1786 04d4 41050000 		.4byte	0x541
 1787 04d8 0E       		.uleb128 0xe
 1788 04d9 57050000 		.4byte	.LASF140
 1789 04dd 05       		.byte	0x5
 1790 04de 0F02     		.2byte	0x20f
 1791 04e0 77000000 		.4byte	0x77
 1792 04e4 00       		.byte	0
 1793 04e5 0E       		.uleb128 0xe
 1794 04e6 8F170000 		.4byte	.LASF141
 1795 04ea 05       		.byte	0x5
 1796 04eb 1502     		.2byte	0x215
 1797 04ed 77000000 		.4byte	0x77
 1798 04f1 02       		.byte	0x2
 1799 04f2 0E       		.uleb128 0xe
 1800 04f3 7E090000 		.4byte	.LASF142
 1801 04f7 05       		.byte	0x5
 1802 04f8 1E02     		.2byte	0x21e
 1803 04fa C4040000 		.4byte	0x4c4
 1804 04fe 04       		.byte	0x4
 1805 04ff 0E       		.uleb128 0xe
 1806 0500 69170000 		.4byte	.LASF143
 1807 0504 05       		.byte	0x5
 1808 0505 2602     		.2byte	0x226
ARM GAS  C:\Users\Rafael\AppData\Local\Temp\ccwrXay6.s 			page 60


 1809 0507 6B000000 		.4byte	0x6b
 1810 050b 05       		.byte	0x5
 1811 050c 0E       		.uleb128 0xe
 1812 050d B50C0000 		.4byte	.LASF144
 1813 0511 05       		.byte	0x5
 1814 0512 2D02     		.2byte	0x22d
 1815 0514 6B000000 		.4byte	0x6b
 1816 0518 06       		.byte	0x6
 1817 0519 0E       		.uleb128 0xe
 1818 051a 10160000 		.4byte	.LASF145
 1819 051e 05       		.byte	0x5
 1820 051f 3302     		.2byte	0x233
 1821 0521 A8030000 		.4byte	0x3a8
 1822 0525 07       		.byte	0x7
 1823 0526 0E       		.uleb128 0xe
 1824 0527 44160000 		.4byte	.LASF146
 1825 052b 05       		.byte	0x5
 1826 052c 3B02     		.2byte	0x23b
 1827 052e 6B000000 		.4byte	0x6b
 1828 0532 0D       		.byte	0xd
 1829 0533 0E       		.uleb128 0xe
 1830 0534 0C090000 		.4byte	.LASF147
 1831 0538 05       		.byte	0x5
 1832 0539 4702     		.2byte	0x247
 1833 053b 6B000000 		.4byte	0x6b
 1834 053f 0E       		.byte	0xe
 1835 0540 00       		.byte	0
 1836 0541 04       		.uleb128 0x4
 1837 0542 CE080000 		.4byte	.LASF148
 1838 0546 05       		.byte	0x5
 1839 0547 4902     		.2byte	0x249
 1840 0549 CF040000 		.4byte	0x4cf
 1841 054d 0D       		.uleb128 0xd
 1842 054e 20       		.byte	0x20
 1843 054f 05       		.byte	0x5
 1844 0550 4C02     		.2byte	0x24c
 1845 0552 71050000 		.4byte	0x571
 1846 0556 0E       		.uleb128 0xe
 1847 0557 BF0E0000 		.4byte	.LASF149
 1848 055b 05       		.byte	0x5
 1849 055c 4F02     		.2byte	0x24f
 1850 055e 71050000 		.4byte	0x571
 1851 0562 00       		.byte	0
 1852 0563 0E       		.uleb128 0xe
 1853 0564 3C110000 		.4byte	.LASF150
 1854 0568 05       		.byte	0x5
 1855 0569 5202     		.2byte	0x252
 1856 056b 6B000000 		.4byte	0x6b
 1857 056f 1F       		.byte	0x1f
 1858 0570 00       		.byte	0
 1859 0571 0F       		.uleb128 0xf
 1860 0572 6B000000 		.4byte	0x6b
 1861 0576 81050000 		.4byte	0x581
 1862 057a 10       		.uleb128 0x10
 1863 057b C0000000 		.4byte	0xc0
 1864 057f 1E       		.byte	0x1e
 1865 0580 00       		.byte	0
ARM GAS  C:\Users\Rafael\AppData\Local\Temp\ccwrXay6.s 			page 61


 1866 0581 04       		.uleb128 0x4
 1867 0582 89050000 		.4byte	.LASF151
 1868 0586 05       		.byte	0x5
 1869 0587 5402     		.2byte	0x254
 1870 0589 4D050000 		.4byte	0x54d
 1871 058d 0D       		.uleb128 0xd
 1872 058e 20       		.byte	0x20
 1873 058f 05       		.byte	0x5
 1874 0590 5702     		.2byte	0x257
 1875 0592 B1050000 		.4byte	0x5b1
 1876 0596 0E       		.uleb128 0xe
 1877 0597 12000000 		.4byte	.LASF152
 1878 059b 05       		.byte	0x5
 1879 059c 5B02     		.2byte	0x25b
 1880 059e 71050000 		.4byte	0x571
 1881 05a2 00       		.byte	0
 1882 05a3 0E       		.uleb128 0xe
 1883 05a4 5A130000 		.4byte	.LASF153
 1884 05a8 05       		.byte	0x5
 1885 05a9 5E02     		.2byte	0x25e
 1886 05ab 6B000000 		.4byte	0x6b
 1887 05af 1F       		.byte	0x1f
 1888 05b0 00       		.byte	0
 1889 05b1 04       		.uleb128 0x4
 1890 05b2 A3120000 		.4byte	.LASF154
 1891 05b6 05       		.byte	0x5
 1892 05b7 6002     		.2byte	0x260
 1893 05b9 8D050000 		.4byte	0x58d
 1894 05bd 0D       		.uleb128 0xd
 1895 05be 14       		.byte	0x14
 1896 05bf 05       		.byte	0x5
 1897 05c0 6302     		.2byte	0x263
 1898 05c2 08060000 		.4byte	0x608
 1899 05c6 0E       		.uleb128 0xe
 1900 05c7 C5000000 		.4byte	.LASF155
 1901 05cb 05       		.byte	0x5
 1902 05cc 6B02     		.2byte	0x26b
 1903 05ce 6B000000 		.4byte	0x6b
 1904 05d2 00       		.byte	0
 1905 05d3 0E       		.uleb128 0xe
 1906 05d4 040C0000 		.4byte	.LASF156
 1907 05d8 05       		.byte	0x5
 1908 05d9 6E02     		.2byte	0x26e
 1909 05db 08060000 		.4byte	0x608
 1910 05df 04       		.byte	0x4
 1911 05e0 0E       		.uleb128 0xe
 1912 05e1 BF0E0000 		.4byte	.LASF149
 1913 05e5 05       		.byte	0x5
 1914 05e6 7002     		.2byte	0x270
 1915 05e8 0E060000 		.4byte	0x60e
 1916 05ec 08       		.byte	0x8
 1917 05ed 0E       		.uleb128 0xe
 1918 05ee 12000000 		.4byte	.LASF152
 1919 05f2 05       		.byte	0x5
 1920 05f3 7202     		.2byte	0x272
 1921 05f5 14060000 		.4byte	0x614
 1922 05f9 0C       		.byte	0xc
ARM GAS  C:\Users\Rafael\AppData\Local\Temp\ccwrXay6.s 			page 62


 1923 05fa 0E       		.uleb128 0xe
 1924 05fb F90F0000 		.4byte	.LASF157
 1925 05ff 05       		.byte	0x5
 1926 0600 7C02     		.2byte	0x27c
 1927 0602 77000000 		.4byte	0x77
 1928 0606 10       		.byte	0x10
 1929 0607 00       		.byte	0
 1930 0608 08       		.uleb128 0x8
 1931 0609 04       		.byte	0x4
 1932 060a 41050000 		.4byte	0x541
 1933 060e 08       		.uleb128 0x8
 1934 060f 04       		.byte	0x4
 1935 0610 81050000 		.4byte	0x581
 1936 0614 08       		.uleb128 0x8
 1937 0615 04       		.byte	0x4
 1938 0616 B1050000 		.4byte	0x5b1
 1939 061a 04       		.uleb128 0x4
 1940 061b 4C110000 		.4byte	.LASF158
 1941 061f 05       		.byte	0x5
 1942 0620 7E02     		.2byte	0x27e
 1943 0622 BD050000 		.4byte	0x5bd
 1944 0626 08       		.uleb128 0x8
 1945 0627 04       		.byte	0x4
 1946 0628 6B000000 		.4byte	0x6b
 1947 062c 0D       		.uleb128 0xd
 1948 062d 02       		.byte	0x2
 1949 062e 06       		.byte	0x6
 1950 062f 9C01     		.2byte	0x19c
 1951 0631 50060000 		.4byte	0x650
 1952 0635 0E       		.uleb128 0xe
 1953 0636 40020000 		.4byte	.LASF159
 1954 063a 06       		.byte	0x6
 1955 063b A301     		.2byte	0x1a3
 1956 063d 6B000000 		.4byte	0x6b
 1957 0641 00       		.byte	0
 1958 0642 0E       		.uleb128 0xe
 1959 0643 78160000 		.4byte	.LASF160
 1960 0647 06       		.byte	0x6
 1961 0648 A901     		.2byte	0x1a9
 1962 064a 6B000000 		.4byte	0x6b
 1963 064e 01       		.byte	0x1
 1964 064f 00       		.byte	0
 1965 0650 04       		.uleb128 0x4
 1966 0651 BE010000 		.4byte	.LASF161
 1967 0655 06       		.byte	0x6
 1968 0656 AB01     		.2byte	0x1ab
 1969 0658 2C060000 		.4byte	0x62c
 1970 065c 08       		.uleb128 0x8
 1971 065d 04       		.byte	0x4
 1972 065e 77000000 		.4byte	0x77
 1973 0662 12       		.uleb128 0x12
 1974 0663 08       		.byte	0x8
 1975 0664 07       		.byte	0x7
 1976 0665 C3       		.byte	0xc3
 1977 0666 83060000 		.4byte	0x683
 1978 066a 13       		.uleb128 0x13
 1979 066b 2F110000 		.4byte	.LASF162
ARM GAS  C:\Users\Rafael\AppData\Local\Temp\ccwrXay6.s 			page 63


 1980 066f 07       		.byte	0x7
 1981 0670 C6       		.byte	0xc6
 1982 0671 77000000 		.4byte	0x77
 1983 0675 00       		.byte	0
 1984 0676 13       		.uleb128 0x13
 1985 0677 BE120000 		.4byte	.LASF163
 1986 067b 07       		.byte	0x7
 1987 067c CB       		.byte	0xcb
 1988 067d C7000000 		.4byte	0xc7
 1989 0681 04       		.byte	0x4
 1990 0682 00       		.byte	0
 1991 0683 06       		.uleb128 0x6
 1992 0684 CC0F0000 		.4byte	.LASF164
 1993 0688 07       		.byte	0x7
 1994 0689 CD       		.byte	0xcd
 1995 068a 62060000 		.4byte	0x662
 1996 068e 12       		.uleb128 0x12
 1997 068f 08       		.byte	0x8
 1998 0690 07       		.byte	0x7
 1999 0691 D0       		.byte	0xd0
 2000 0692 AF060000 		.4byte	0x6af
 2001 0696 13       		.uleb128 0x13
 2002 0697 1E060000 		.4byte	.LASF165
 2003 069b 07       		.byte	0x7
 2004 069c D3       		.byte	0xd3
 2005 069d 77000000 		.4byte	0x77
 2006 06a1 00       		.byte	0
 2007 06a2 13       		.uleb128 0x13
 2008 06a3 3A130000 		.4byte	.LASF166
 2009 06a7 07       		.byte	0x7
 2010 06a8 D8       		.byte	0xd8
 2011 06a9 AF060000 		.4byte	0x6af
 2012 06ad 04       		.byte	0x4
 2013 06ae 00       		.byte	0
 2014 06af 08       		.uleb128 0x8
 2015 06b0 04       		.byte	0x4
 2016 06b1 83060000 		.4byte	0x683
 2017 06b5 06       		.uleb128 0x6
 2018 06b6 5C120000 		.4byte	.LASF167
 2019 06ba 07       		.byte	0x7
 2020 06bb DA       		.byte	0xda
 2021 06bc 8E060000 		.4byte	0x68e
 2022 06c0 14       		.uleb128 0x14
 2023 06c1 08       		.byte	0x8
 2024 06c2 07       		.byte	0x7
 2025 06c3 DD       		.byte	0xdd
 2026 06c4 DF060000 		.4byte	0x6df
 2027 06c8 15       		.uleb128 0x15
 2028 06c9 4B130000 		.4byte	.LASF168
 2029 06cd 07       		.byte	0x7
 2030 06ce E4       		.byte	0xe4
 2031 06cf B5060000 		.4byte	0x6b5
 2032 06d3 15       		.uleb128 0x15
 2033 06d4 CC0A0000 		.4byte	.LASF169
 2034 06d8 07       		.byte	0x7
 2035 06d9 E7       		.byte	0xe7
 2036 06da 77000000 		.4byte	0x77
ARM GAS  C:\Users\Rafael\AppData\Local\Temp\ccwrXay6.s 			page 64


 2037 06de 00       		.byte	0
 2038 06df 06       		.uleb128 0x6
 2039 06e0 44120000 		.4byte	.LASF170
 2040 06e4 07       		.byte	0x7
 2041 06e5 E9       		.byte	0xe9
 2042 06e6 C0060000 		.4byte	0x6c0
 2043 06ea 12       		.uleb128 0x12
 2044 06eb 14       		.byte	0x14
 2045 06ec 07       		.byte	0x7
 2046 06ed EC       		.byte	0xec
 2047 06ee 31070000 		.4byte	0x731
 2048 06f2 13       		.uleb128 0x13
 2049 06f3 62050000 		.4byte	.LASF171
 2050 06f7 07       		.byte	0x7
 2051 06f8 EF       		.byte	0xef
 2052 06f9 77000000 		.4byte	0x77
 2053 06fd 00       		.byte	0
 2054 06fe 13       		.uleb128 0x13
 2055 06ff D4030000 		.4byte	.LASF172
 2056 0703 07       		.byte	0x7
 2057 0704 F5       		.byte	0xf5
 2058 0705 77000000 		.4byte	0x77
 2059 0709 02       		.byte	0x2
 2060 070a 13       		.uleb128 0x13
 2061 070b 65010000 		.4byte	.LASF173
 2062 070f 07       		.byte	0x7
 2063 0710 FF       		.byte	0xff
 2064 0711 83000000 		.4byte	0x83
 2065 0715 04       		.byte	0x4
 2066 0716 0E       		.uleb128 0xe
 2067 0717 060E0000 		.4byte	.LASF174
 2068 071b 07       		.byte	0x7
 2069 071c 0201     		.2byte	0x102
 2070 071e 77000000 		.4byte	0x77
 2071 0722 08       		.byte	0x8
 2072 0723 0E       		.uleb128 0xe
 2073 0724 D9100000 		.4byte	.LASF175
 2074 0728 07       		.byte	0x7
 2075 0729 0B01     		.2byte	0x10b
 2076 072b DF060000 		.4byte	0x6df
 2077 072f 0C       		.byte	0xc
 2078 0730 00       		.byte	0
 2079 0731 04       		.uleb128 0x4
 2080 0732 3C070000 		.4byte	.LASF176
 2081 0736 07       		.byte	0x7
 2082 0737 0C01     		.2byte	0x10c
 2083 0739 EA060000 		.4byte	0x6ea
 2084 073d 04       		.uleb128 0x4
 2085 073e 75010000 		.4byte	.LASF177
 2086 0742 08       		.byte	0x8
 2087 0743 E601     		.2byte	0x1e6
 2088 0745 49070000 		.4byte	0x749
 2089 0749 08       		.uleb128 0x8
 2090 074a 04       		.byte	0x4
 2091 074b 4F070000 		.4byte	0x74f
 2092 074f 09       		.uleb128 0x9
 2093 0750 5F070000 		.4byte	0x75f
ARM GAS  C:\Users\Rafael\AppData\Local\Temp\ccwrXay6.s 			page 65


 2094 0754 0A       		.uleb128 0xa
 2095 0755 83000000 		.4byte	0x83
 2096 0759 0A       		.uleb128 0xa
 2097 075a C7000000 		.4byte	0xc7
 2098 075e 00       		.byte	0
 2099 075f 16       		.uleb128 0x16
 2100 0760 8F02     		.2byte	0x28f
 2101 0762 09       		.byte	0x9
 2102 0763 9C       		.byte	0x9c
 2103 0764 9C070000 		.4byte	0x79c
 2104 0768 13       		.uleb128 0x13
 2105 0769 C0080000 		.4byte	.LASF178
 2106 076d 09       		.byte	0x9
 2107 076e 9F       		.byte	0x9f
 2108 076f 9C070000 		.4byte	0x79c
 2109 0773 00       		.byte	0
 2110 0774 17       		.uleb128 0x17
 2111 0775 71080000 		.4byte	.LASF179
 2112 0779 09       		.byte	0x9
 2113 077a A2       		.byte	0xa2
 2114 077b AD070000 		.4byte	0x7ad
 2115 077f 7902     		.2byte	0x279
 2116 0781 17       		.uleb128 0x17
 2117 0782 49140000 		.4byte	.LASF180
 2118 0786 09       		.byte	0x9
 2119 0787 A5       		.byte	0xa5
 2120 0788 6B000000 		.4byte	0x6b
 2121 078c 8D02     		.2byte	0x28d
 2122 078e 17       		.uleb128 0x17
 2123 078f E8070000 		.4byte	.LASF181
 2124 0793 09       		.byte	0x9
 2125 0794 A8       		.byte	0xa8
 2126 0795 6B000000 		.4byte	0x6b
 2127 0799 8E02     		.2byte	0x28e
 2128 079b 00       		.byte	0
 2129 079c 0F       		.uleb128 0xf
 2130 079d 6B000000 		.4byte	0x6b
 2131 07a1 AD070000 		.4byte	0x7ad
 2132 07a5 18       		.uleb128 0x18
 2133 07a6 C0000000 		.4byte	0xc0
 2134 07aa 7802     		.2byte	0x278
 2135 07ac 00       		.byte	0
 2136 07ad 0F       		.uleb128 0xf
 2137 07ae 6B000000 		.4byte	0x6b
 2138 07b2 C3070000 		.4byte	0x7c3
 2139 07b6 10       		.uleb128 0x10
 2140 07b7 C0000000 		.4byte	0xc0
 2141 07bb 04       		.byte	0x4
 2142 07bc 10       		.uleb128 0x10
 2143 07bd C0000000 		.4byte	0xc0
 2144 07c1 03       		.byte	0x3
 2145 07c2 00       		.byte	0
 2146 07c3 06       		.uleb128 0x6
 2147 07c4 EE090000 		.4byte	.LASF182
 2148 07c8 09       		.byte	0x9
 2149 07c9 A9       		.byte	0xa9
 2150 07ca 5F070000 		.4byte	0x75f
ARM GAS  C:\Users\Rafael\AppData\Local\Temp\ccwrXay6.s 			page 66


 2151 07ce 0B       		.uleb128 0xb
 2152 07cf 01       		.byte	0x1
 2153 07d0 0A       		.byte	0xa
 2154 07d1 BF07     		.2byte	0x7bf
 2155 07d3 F6070000 		.4byte	0x7f6
 2156 07d7 0C       		.uleb128 0xc
 2157 07d8 CD040000 		.4byte	.LASF183
 2158 07dc 00       		.sleb128 0
 2159 07dd 0C       		.uleb128 0xc
 2160 07de 4C0B0000 		.4byte	.LASF184
 2161 07e2 01       		.sleb128 1
 2162 07e3 0C       		.uleb128 0xc
 2163 07e4 1B160000 		.4byte	.LASF185
 2164 07e8 02       		.sleb128 2
 2165 07e9 0C       		.uleb128 0xc
 2166 07ea FF010000 		.4byte	.LASF186
 2167 07ee 03       		.sleb128 3
 2168 07ef 0C       		.uleb128 0xc
 2169 07f0 2B120000 		.4byte	.LASF187
 2170 07f4 04       		.sleb128 4
 2171 07f5 00       		.byte	0
 2172 07f6 04       		.uleb128 0x4
 2173 07f7 B6130000 		.4byte	.LASF188
 2174 07fb 0A       		.byte	0xa
 2175 07fc CD07     		.2byte	0x7cd
 2176 07fe CE070000 		.4byte	0x7ce
 2177 0802 08       		.uleb128 0x8
 2178 0803 04       		.byte	0x4
 2179 0804 08080000 		.4byte	0x808
 2180 0808 19       		.uleb128 0x19
 2181 0809 1A       		.uleb128 0x1a
 2182 080a 9B000000 		.4byte	.LASF258
 2183 080e 01       		.byte	0x1
 2184 080f 9704     		.2byte	0x497
 2185 0811 00000000 		.4byte	.LFB11
 2186 0815 78000000 		.4byte	.LFE11-.LFB11
 2187 0819 01       		.uleb128 0x1
 2188 081a 9C       		.byte	0x9c
 2189 081b 9E080000 		.4byte	0x89e
 2190 081f 1B       		.uleb128 0x1b
 2191 0820 CC120000 		.4byte	.LASF189
 2192 0824 01       		.byte	0x1
 2193 0825 9704     		.2byte	0x497
 2194 0827 9E080000 		.4byte	0x89e
 2195 082b 00000000 		.4byte	.LLST0
 2196 082f 1B       		.uleb128 0x1b
 2197 0830 47110000 		.4byte	.LASF190
 2198 0834 01       		.byte	0x1
 2199 0835 9704     		.2byte	0x497
 2200 0837 6B000000 		.4byte	0x6b
 2201 083b 21000000 		.4byte	.LLST1
 2202 083f 1C       		.uleb128 0x1c
 2203 0840 6900     		.ascii	"i\000"
 2204 0842 01       		.byte	0x1
 2205 0843 9904     		.2byte	0x499
 2206 0845 6B000000 		.4byte	0x6b
 2207 0849 42000000 		.4byte	.LLST2
ARM GAS  C:\Users\Rafael\AppData\Local\Temp\ccwrXay6.s 			page 67


 2208 084d 1D       		.uleb128 0x1d
 2209 084e 130E0000 		.4byte	.LASF191
 2210 0852 01       		.byte	0x1
 2211 0853 9A04     		.2byte	0x49a
 2212 0855 6B000000 		.4byte	0x6b
 2213 0859 76000000 		.4byte	.LLST3
 2214 085d 1D       		.uleb128 0x1d
 2215 085e 9C160000 		.4byte	.LASF192
 2216 0862 01       		.byte	0x1
 2217 0863 9B04     		.2byte	0x49b
 2218 0865 6B000000 		.4byte	0x6b
 2219 0869 95000000 		.4byte	.LLST4
 2220 086d 1D       		.uleb128 0x1d
 2221 086e EB140000 		.4byte	.LASF193
 2222 0872 01       		.byte	0x1
 2223 0873 9C04     		.2byte	0x49c
 2224 0875 6B000000 		.4byte	0x6b
 2225 0879 BF000000 		.4byte	.LLST5
 2226 087d 1D       		.uleb128 0x1d
 2227 087e BA000000 		.4byte	.LASF194
 2228 0882 01       		.byte	0x1
 2229 0883 9D04     		.2byte	0x49d
 2230 0885 26060000 		.4byte	0x626
 2231 0889 FF000000 		.4byte	.LLST6
 2232 088d 1D       		.uleb128 0x1d
 2233 088e E6080000 		.4byte	.LASF195
 2234 0892 01       		.byte	0x1
 2235 0893 9E04     		.2byte	0x49e
 2236 0895 6B000000 		.4byte	0x6b
 2237 0899 32010000 		.4byte	.LLST7
 2238 089d 00       		.byte	0
 2239 089e 08       		.uleb128 0x8
 2240 089f 04       		.byte	0x4
 2241 08a0 A4080000 		.4byte	0x8a4
 2242 08a4 1E       		.uleb128 0x1e
 2243 08a5 9D000000 		.4byte	0x9d
 2244 08a9 1F       		.uleb128 0x1f
 2245 08aa D0020000 		.4byte	.LASF196
 2246 08ae 01       		.byte	0x1
 2247 08af C9       		.byte	0xc9
 2248 08b0 00000000 		.4byte	.LFB3
 2249 08b4 08000000 		.4byte	.LFE3-.LFB3
 2250 08b8 01       		.uleb128 0x1
 2251 08b9 9C       		.byte	0x9c
 2252 08ba C8080000 		.4byte	0x8c8
 2253 08be 20       		.uleb128 0x20
 2254 08bf 06000000 		.4byte	.LVL26
 2255 08c3 500F0000 		.4byte	0xf50
 2256 08c7 00       		.byte	0
 2257 08c8 1F       		.uleb128 0x1f
 2258 08c9 0F070000 		.4byte	.LASF197
 2259 08cd 01       		.byte	0x1
 2260 08ce 98       		.byte	0x98
 2261 08cf 00000000 		.4byte	.LFB2
 2262 08d3 34000000 		.4byte	.LFE2-.LFB2
 2263 08d7 01       		.uleb128 0x1
 2264 08d8 9C       		.byte	0x9c
ARM GAS  C:\Users\Rafael\AppData\Local\Temp\ccwrXay6.s 			page 68


 2265 08d9 E7080000 		.4byte	0x8e7
 2266 08dd 20       		.uleb128 0x20
 2267 08de 14000000 		.4byte	.LVL27
 2268 08e2 A9080000 		.4byte	0x8a9
 2269 08e6 00       		.byte	0
 2270 08e7 21       		.uleb128 0x21
 2271 08e8 E2110000 		.4byte	.LASF206
 2272 08ec 01       		.byte	0x1
 2273 08ed 8F01     		.2byte	0x18f
 2274 08ef 78030000 		.4byte	0x378
 2275 08f3 00000000 		.4byte	.LFB4
 2276 08f7 B0000000 		.4byte	.LFE4-.LFB4
 2277 08fb 01       		.uleb128 0x1
 2278 08fc 9C       		.byte	0x9c
 2279 08fd 020A0000 		.4byte	0xa02
 2280 0901 1B       		.uleb128 0x1b
 2281 0902 D2010000 		.4byte	.LASF198
 2282 0906 01       		.byte	0x1
 2283 0907 8F01     		.2byte	0x18f
 2284 0909 3D070000 		.4byte	0x73d
 2285 090d 50010000 		.4byte	.LLST8
 2286 0911 1D       		.uleb128 0x1d
 2287 0912 57000000 		.4byte	.LASF199
 2288 0916 01       		.byte	0x1
 2289 0917 9101     		.2byte	0x191
 2290 0919 78030000 		.4byte	0x378
 2291 091d 7C010000 		.4byte	.LLST9
 2292 0921 22       		.uleb128 0x22
 2293 0922 D4070000 		.4byte	.LASF200
 2294 0926 01       		.byte	0x1
 2295 0927 9501     		.2byte	0x195
 2296 0929 020A0000 		.4byte	0xa02
 2297 092d 02       		.uleb128 0x2
 2298 092e 91       		.byte	0x91
 2299 092f 64       		.sleb128 -28
 2300 0930 23       		.uleb128 0x23
 2301 0931 2E000000 		.4byte	.LBB2
 2302 0935 24000000 		.4byte	.LBE2-.LBB2
 2303 0939 90090000 		.4byte	0x990
 2304 093d 22       		.uleb128 0x22
 2305 093e FA110000 		.4byte	.LASF201
 2306 0942 01       		.byte	0x1
 2307 0943 B701     		.2byte	0x1b7
 2308 0945 25040000 		.4byte	0x425
 2309 0949 02       		.uleb128 0x2
 2310 094a 91       		.byte	0x91
 2311 094b 50       		.sleb128 -48
 2312 094c 22       		.uleb128 0x22
 2313 094d B80F0000 		.4byte	.LASF202
 2314 0951 01       		.byte	0x1
 2315 0952 B801     		.2byte	0x1b8
 2316 0954 48040000 		.4byte	0x448
 2317 0958 02       		.uleb128 0x2
 2318 0959 91       		.byte	0x91
 2319 095a 4C       		.sleb128 -52
 2320 095b 22       		.uleb128 0x22
 2321 095c 33030000 		.4byte	.LASF203
ARM GAS  C:\Users\Rafael\AppData\Local\Temp\ccwrXay6.s 			page 69


 2322 0960 01       		.byte	0x1
 2323 0961 B901     		.2byte	0x1b9
 2324 0963 91040000 		.4byte	0x491
 2325 0967 02       		.uleb128 0x2
 2326 0968 91       		.byte	0x91
 2327 0969 58       		.sleb128 -40
 2328 096a 22       		.uleb128 0x22
 2329 096b F8070000 		.4byte	.LASF204
 2330 096f 01       		.byte	0x1
 2331 0970 BA01     		.2byte	0x1ba
 2332 0972 77000000 		.4byte	0x77
 2333 0976 02       		.uleb128 0x2
 2334 0977 91       		.byte	0x91
 2335 0978 4E       		.sleb128 -50
 2336 0979 24       		.uleb128 0x24
 2337 097a 52000000 		.4byte	.LVL33
 2338 097e 570F0000 		.4byte	0xf57
 2339 0982 25       		.uleb128 0x25
 2340 0983 01       		.uleb128 0x1
 2341 0984 51       		.byte	0x51
 2342 0985 02       		.uleb128 0x2
 2343 0986 91       		.byte	0x91
 2344 0987 4E       		.sleb128 -50
 2345 0988 25       		.uleb128 0x25
 2346 0989 01       		.uleb128 0x1
 2347 098a 50       		.byte	0x50
 2348 098b 02       		.uleb128 0x2
 2349 098c 91       		.byte	0x91
 2350 098d 58       		.sleb128 -40
 2351 098e 00       		.byte	0
 2352 098f 00       		.byte	0
 2353 0990 26       		.uleb128 0x26
 2354 0991 10000000 		.4byte	.LVL31
 2355 0995 7D0F0000 		.4byte	0xf7d
 2356 0999 B2090000 		.4byte	0x9b2
 2357 099d 25       		.uleb128 0x25
 2358 099e 01       		.uleb128 0x1
 2359 099f 52       		.byte	0x52
 2360 09a0 01       		.uleb128 0x1
 2361 09a1 44       		.byte	0x44
 2362 09a2 25       		.uleb128 0x25
 2363 09a3 01       		.uleb128 0x1
 2364 09a4 51       		.byte	0x51
 2365 09a5 05       		.uleb128 0x5
 2366 09a6 03       		.byte	0x3
 2367 09a7 00000000 		.4byte	.LANCHOR2
 2368 09ab 25       		.uleb128 0x25
 2369 09ac 01       		.uleb128 0x1
 2370 09ad 50       		.byte	0x50
 2371 09ae 02       		.uleb128 0x2
 2372 09af 91       		.byte	0x91
 2373 09b0 64       		.sleb128 -28
 2374 09b1 00       		.byte	0
 2375 09b2 20       		.uleb128 0x20
 2376 09b3 1E000000 		.4byte	.LVL32
 2377 09b7 C8080000 		.4byte	0x8c8
 2378 09bb 26       		.uleb128 0x26
ARM GAS  C:\Users\Rafael\AppData\Local\Temp\ccwrXay6.s 			page 70


 2379 09bc 70000000 		.4byte	.LVL35
 2380 09c0 9A0F0000 		.4byte	0xf9a
 2381 09c4 ED090000 		.4byte	0x9ed
 2382 09c8 25       		.uleb128 0x25
 2383 09c9 01       		.uleb128 0x1
 2384 09ca 53       		.byte	0x53
 2385 09cb 02       		.uleb128 0x2
 2386 09cc 91       		.byte	0x91
 2387 09cd 64       		.sleb128 -28
 2388 09ce 25       		.uleb128 0x25
 2389 09cf 01       		.uleb128 0x1
 2390 09d0 52       		.byte	0x52
 2391 09d1 03       		.uleb128 0x3
 2392 09d2 0A       		.byte	0xa
 2393 09d3 E00A     		.2byte	0xae0
 2394 09d5 25       		.uleb128 0x25
 2395 09d6 01       		.uleb128 0x1
 2396 09d7 51       		.byte	0x51
 2397 09d8 05       		.uleb128 0x5
 2398 09d9 03       		.byte	0x3
 2399 09da 00000000 		.4byte	.LANCHOR3
 2400 09de 25       		.uleb128 0x25
 2401 09df 02       		.uleb128 0x2
 2402 09e0 7D       		.byte	0x7d
 2403 09e1 08       		.sleb128 8
 2404 09e2 03       		.uleb128 0x3
 2405 09e3 0A       		.byte	0xa
 2406 09e4 7902     		.2byte	0x279
 2407 09e6 25       		.uleb128 0x25
 2408 09e7 02       		.uleb128 0x2
 2409 09e8 7D       		.byte	0x7d
 2410 09e9 00       		.sleb128 0
 2411 09ea 01       		.uleb128 0x1
 2412 09eb 35       		.byte	0x35
 2413 09ec 00       		.byte	0
 2414 09ed 24       		.uleb128 0x24
 2415 09ee 84000000 		.4byte	.LVL37
 2416 09f2 D40F0000 		.4byte	0xfd4
 2417 09f6 25       		.uleb128 0x25
 2418 09f7 01       		.uleb128 0x1
 2419 09f8 52       		.byte	0x52
 2420 09f9 01       		.uleb128 0x1
 2421 09fa 3F       		.byte	0x3f
 2422 09fb 25       		.uleb128 0x25
 2423 09fc 01       		.uleb128 0x1
 2424 09fd 51       		.byte	0x51
 2425 09fe 01       		.uleb128 0x1
 2426 09ff 42       		.byte	0x42
 2427 0a00 00       		.byte	0
 2428 0a01 00       		.byte	0
 2429 0a02 0F       		.uleb128 0xf
 2430 0a03 E8030000 		.4byte	0x3e8
 2431 0a07 120A0000 		.4byte	0xa12
 2432 0a0b 10       		.uleb128 0x10
 2433 0a0c C0000000 		.4byte	0xc0
 2434 0a10 04       		.byte	0x4
 2435 0a11 00       		.byte	0
ARM GAS  C:\Users\Rafael\AppData\Local\Temp\ccwrXay6.s 			page 71


 2436 0a12 27       		.uleb128 0x27
 2437 0a13 860B0000 		.4byte	.LASF205
 2438 0a17 01       		.byte	0x1
 2439 0a18 0902     		.2byte	0x209
 2440 0a1a 00000000 		.4byte	.LFB5
 2441 0a1e 14000000 		.4byte	.LFE5-.LFB5
 2442 0a22 01       		.uleb128 0x1
 2443 0a23 9C       		.byte	0x9c
 2444 0a24 320A0000 		.4byte	0xa32
 2445 0a28 20       		.uleb128 0x20
 2446 0a29 06000000 		.4byte	.LVL41
 2447 0a2d FF0F0000 		.4byte	0xfff
 2448 0a31 00       		.byte	0
 2449 0a32 21       		.uleb128 0x21
 2450 0a33 B3140000 		.4byte	.LASF207
 2451 0a37 01       		.byte	0x1
 2452 0a38 3E02     		.2byte	0x23e
 2453 0a3a 78030000 		.4byte	0x378
 2454 0a3e 00000000 		.4byte	.LFB6
 2455 0a42 EC000000 		.4byte	.LFE6-.LFB6
 2456 0a46 01       		.uleb128 0x1
 2457 0a47 9C       		.byte	0x9c
 2458 0a48 060B0000 		.4byte	0xb06
 2459 0a4c 1B       		.uleb128 0x1b
 2460 0a4d 8D100000 		.4byte	.LASF208
 2461 0a51 01       		.byte	0x1
 2462 0a52 3E02     		.2byte	0x23e
 2463 0a54 6B000000 		.4byte	0x6b
 2464 0a58 C8010000 		.4byte	.LLST10
 2465 0a5c 1D       		.uleb128 0x1d
 2466 0a5d 57000000 		.4byte	.LASF199
 2467 0a61 01       		.byte	0x1
 2468 0a62 4002     		.2byte	0x240
 2469 0a64 78030000 		.4byte	0x378
 2470 0a68 02020000 		.4byte	.LLST11
 2471 0a6c 23       		.uleb128 0x23
 2472 0a6d 7C000000 		.4byte	.LBB3
 2473 0a71 28000000 		.4byte	.LBE3-.LBB3
 2474 0a75 A40A0000 		.4byte	0xaa4
 2475 0a79 22       		.uleb128 0x22
 2476 0a7a AC0D0000 		.4byte	.LASF209
 2477 0a7e 01       		.byte	0x1
 2478 0a7f 6402     		.2byte	0x264
 2479 0a81 AD070000 		.4byte	0x7ad
 2480 0a85 02       		.uleb128 0x2
 2481 0a86 91       		.byte	0x91
 2482 0a87 64       		.sleb128 -28
 2483 0a88 24       		.uleb128 0x24
 2484 0a89 94000000 		.4byte	.LVL53
 2485 0a8d 07100000 		.4byte	0x1007
 2486 0a91 25       		.uleb128 0x25
 2487 0a92 01       		.uleb128 0x1
 2488 0a93 53       		.byte	0x53
 2489 0a94 02       		.uleb128 0x2
 2490 0a95 74       		.byte	0x74
 2491 0a96 00       		.sleb128 0
 2492 0a97 25       		.uleb128 0x25
ARM GAS  C:\Users\Rafael\AppData\Local\Temp\ccwrXay6.s 			page 72


 2493 0a98 01       		.uleb128 0x1
 2494 0a99 52       		.byte	0x52
 2495 0a9a 01       		.uleb128 0x1
 2496 0a9b 44       		.byte	0x44
 2497 0a9c 25       		.uleb128 0x25
 2498 0a9d 01       		.uleb128 0x1
 2499 0a9e 50       		.byte	0x50
 2500 0a9f 02       		.uleb128 0x2
 2501 0aa0 91       		.byte	0x91
 2502 0aa1 64       		.sleb128 -28
 2503 0aa2 00       		.byte	0
 2504 0aa3 00       		.byte	0
 2505 0aa4 23       		.uleb128 0x23
 2506 0aa5 A4000000 		.4byte	.LBB4
 2507 0aa9 2C000000 		.4byte	.LBE4-.LBB4
 2508 0aad DC0A0000 		.4byte	0xadc
 2509 0ab1 22       		.uleb128 0x22
 2510 0ab2 AC0D0000 		.4byte	.LASF209
 2511 0ab6 01       		.byte	0x1
 2512 0ab7 7102     		.2byte	0x271
 2513 0ab9 060B0000 		.4byte	0xb06
 2514 0abd 02       		.uleb128 0x2
 2515 0abe 91       		.byte	0x91
 2516 0abf 64       		.sleb128 -28
 2517 0ac0 24       		.uleb128 0x24
 2518 0ac1 C2000000 		.4byte	.LVL55
 2519 0ac5 07100000 		.4byte	0x1007
 2520 0ac9 25       		.uleb128 0x25
 2521 0aca 01       		.uleb128 0x1
 2522 0acb 53       		.byte	0x53
 2523 0acc 02       		.uleb128 0x2
 2524 0acd 74       		.byte	0x74
 2525 0ace 00       		.sleb128 0
 2526 0acf 25       		.uleb128 0x25
 2527 0ad0 01       		.uleb128 0x1
 2528 0ad1 52       		.byte	0x52
 2529 0ad2 01       		.uleb128 0x1
 2530 0ad3 34       		.byte	0x34
 2531 0ad4 25       		.uleb128 0x25
 2532 0ad5 01       		.uleb128 0x1
 2533 0ad6 50       		.byte	0x50
 2534 0ad7 02       		.uleb128 0x2
 2535 0ad8 91       		.byte	0x91
 2536 0ad9 64       		.sleb128 -28
 2537 0ada 00       		.byte	0
 2538 0adb 00       		.byte	0
 2539 0adc 26       		.uleb128 0x26
 2540 0add 12000000 		.4byte	.LVL44
 2541 0ae1 2B100000 		.4byte	0x102b
 2542 0ae5 F00A0000 		.4byte	0xaf0
 2543 0ae9 25       		.uleb128 0x25
 2544 0aea 01       		.uleb128 0x1
 2545 0aeb 50       		.byte	0x50
 2546 0aec 02       		.uleb128 0x2
 2547 0aed 74       		.byte	0x74
 2548 0aee 00       		.sleb128 0
 2549 0aef 00       		.byte	0
ARM GAS  C:\Users\Rafael\AppData\Local\Temp\ccwrXay6.s 			page 73


 2550 0af0 24       		.uleb128 0x24
 2551 0af1 58000000 		.4byte	.LVL50
 2552 0af5 07100000 		.4byte	0x1007
 2553 0af9 25       		.uleb128 0x25
 2554 0afa 01       		.uleb128 0x1
 2555 0afb 53       		.byte	0x53
 2556 0afc 02       		.uleb128 0x2
 2557 0afd 74       		.byte	0x74
 2558 0afe 00       		.sleb128 0
 2559 0aff 25       		.uleb128 0x25
 2560 0b00 01       		.uleb128 0x1
 2561 0b01 52       		.byte	0x52
 2562 0b02 01       		.uleb128 0x1
 2563 0b03 34       		.byte	0x34
 2564 0b04 00       		.byte	0
 2565 0b05 00       		.byte	0
 2566 0b06 0F       		.uleb128 0xf
 2567 0b07 6B000000 		.4byte	0x6b
 2568 0b0b 160B0000 		.4byte	0xb16
 2569 0b0f 10       		.uleb128 0x10
 2570 0b10 C0000000 		.4byte	0xc0
 2571 0b14 03       		.byte	0x3
 2572 0b15 00       		.byte	0
 2573 0b16 21       		.uleb128 0x21
 2574 0b17 56040000 		.4byte	.LASF210
 2575 0b1b 01       		.byte	0x1
 2576 0b1c A002     		.2byte	0x2a0
 2577 0b1e 78030000 		.4byte	0x378
 2578 0b22 00000000 		.4byte	.LFB7
 2579 0b26 70000000 		.4byte	.LFE7-.LFB7
 2580 0b2a 01       		.uleb128 0x1
 2581 0b2b 9C       		.byte	0x9c
 2582 0b2c C20B0000 		.4byte	0xbc2
 2583 0b30 1B       		.uleb128 0x1b
 2584 0b31 95140000 		.4byte	.LASF118
 2585 0b35 01       		.byte	0x1
 2586 0b36 A002     		.2byte	0x2a0
 2587 0b38 C20B0000 		.4byte	0xbc2
 2588 0b3c 59020000 		.4byte	.LLST12
 2589 0b40 1D       		.uleb128 0x1d
 2590 0b41 57000000 		.4byte	.LASF199
 2591 0b45 01       		.byte	0x1
 2592 0b46 A202     		.2byte	0x2a2
 2593 0b48 78030000 		.4byte	0x378
 2594 0b4c 90020000 		.4byte	.LLST13
 2595 0b50 28       		.uleb128 0x28
 2596 0b51 0E000000 		.4byte	.LBB5
 2597 0b55 54000000 		.4byte	.LBE5-.LBB5
 2598 0b59 22       		.uleb128 0x22
 2599 0b5a 5A010000 		.4byte	.LASF211
 2600 0b5e 01       		.byte	0x1
 2601 0b5f A902     		.2byte	0x2a9
 2602 0b61 6B000000 		.4byte	0x6b
 2603 0b65 02       		.uleb128 0x2
 2604 0b66 91       		.byte	0x91
 2605 0b67 67       		.sleb128 -25
 2606 0b68 22       		.uleb128 0x22
ARM GAS  C:\Users\Rafael\AppData\Local\Temp\ccwrXay6.s 			page 74


 2607 0b69 75150000 		.4byte	.LASF212
 2608 0b6d 01       		.byte	0x1
 2609 0b6e AA02     		.2byte	0x2aa
 2610 0b70 B8030000 		.4byte	0x3b8
 2611 0b74 02       		.uleb128 0x2
 2612 0b75 91       		.byte	0x91
 2613 0b76 68       		.sleb128 -24
 2614 0b77 26       		.uleb128 0x26
 2615 0b78 26000000 		.4byte	.LVL59
 2616 0b7c 40100000 		.4byte	0x1040
 2617 0b80 960B0000 		.4byte	0xb96
 2618 0b84 25       		.uleb128 0x25
 2619 0b85 01       		.uleb128 0x1
 2620 0b86 52       		.byte	0x52
 2621 0b87 01       		.uleb128 0x1
 2622 0b88 36       		.byte	0x36
 2623 0b89 25       		.uleb128 0x25
 2624 0b8a 01       		.uleb128 0x1
 2625 0b8b 51       		.byte	0x51
 2626 0b8c 02       		.uleb128 0x2
 2627 0b8d 91       		.byte	0x91
 2628 0b8e 68       		.sleb128 -24
 2629 0b8f 25       		.uleb128 0x25
 2630 0b90 01       		.uleb128 0x1
 2631 0b91 50       		.byte	0x50
 2632 0b92 02       		.uleb128 0x2
 2633 0b93 74       		.byte	0x74
 2634 0b94 00       		.sleb128 0
 2635 0b95 00       		.byte	0
 2636 0b96 26       		.uleb128 0x26
 2637 0b97 3E000000 		.4byte	.LVL60
 2638 0b9b 5F100000 		.4byte	0x105f
 2639 0b9f B00B0000 		.4byte	0xbb0
 2640 0ba3 25       		.uleb128 0x25
 2641 0ba4 01       		.uleb128 0x1
 2642 0ba5 51       		.byte	0x51
 2643 0ba6 02       		.uleb128 0x2
 2644 0ba7 74       		.byte	0x74
 2645 0ba8 00       		.sleb128 0
 2646 0ba9 25       		.uleb128 0x25
 2647 0baa 01       		.uleb128 0x1
 2648 0bab 50       		.byte	0x50
 2649 0bac 02       		.uleb128 0x2
 2650 0bad 7D       		.byte	0x7d
 2651 0bae 07       		.sleb128 7
 2652 0baf 00       		.byte	0
 2653 0bb0 24       		.uleb128 0x24
 2654 0bb1 60000000 		.4byte	.LVL63
 2655 0bb5 7A100000 		.4byte	0x107a
 2656 0bb9 25       		.uleb128 0x25
 2657 0bba 01       		.uleb128 0x1
 2658 0bbb 50       		.byte	0x50
 2659 0bbc 02       		.uleb128 0x2
 2660 0bbd 74       		.byte	0x74
 2661 0bbe 00       		.sleb128 0
 2662 0bbf 00       		.byte	0
 2663 0bc0 00       		.byte	0
ARM GAS  C:\Users\Rafael\AppData\Local\Temp\ccwrXay6.s 			page 75


 2664 0bc1 00       		.byte	0
 2665 0bc2 08       		.uleb128 0x8
 2666 0bc3 04       		.byte	0x4
 2667 0bc4 B8030000 		.4byte	0x3b8
 2668 0bc8 21       		.uleb128 0x21
 2669 0bc9 6C050000 		.4byte	.LASF213
 2670 0bcd 01       		.byte	0x1
 2671 0bce 0503     		.2byte	0x305
 2672 0bd0 78030000 		.4byte	0x378
 2673 0bd4 00000000 		.4byte	.LFB8
 2674 0bd8 84000000 		.4byte	.LFE8-.LFB8
 2675 0bdc 01       		.uleb128 0x1
 2676 0bdd 9C       		.byte	0x9c
 2677 0bde 160C0000 		.4byte	0xc16
 2678 0be2 1B       		.uleb128 0x1b
 2679 0be3 E2020000 		.4byte	.LASF214
 2680 0be7 01       		.byte	0x1
 2681 0be8 0503     		.2byte	0x305
 2682 0bea 6B000000 		.4byte	0x6b
 2683 0bee D1020000 		.4byte	.LLST14
 2684 0bf2 1D       		.uleb128 0x1d
 2685 0bf3 57000000 		.4byte	.LASF199
 2686 0bf7 01       		.byte	0x1
 2687 0bf8 0703     		.2byte	0x307
 2688 0bfa 78030000 		.4byte	0x378
 2689 0bfe 49030000 		.4byte	.LLST15
 2690 0c02 24       		.uleb128 0x24
 2691 0c03 54000000 		.4byte	.LVL68
 2692 0c07 90100000 		.4byte	0x1090
 2693 0c0b 25       		.uleb128 0x25
 2694 0c0c 01       		.uleb128 0x1
 2695 0c0d 50       		.byte	0x50
 2696 0c0e 05       		.uleb128 0x5
 2697 0c0f 03       		.byte	0x3
 2698 0c10 20000000 		.4byte	.LANCHOR0+32
 2699 0c14 00       		.byte	0
 2700 0c15 00       		.byte	0
 2701 0c16 27       		.uleb128 0x27
 2702 0c17 6F070000 		.4byte	.LASF215
 2703 0c1b 01       		.byte	0x1
 2704 0c1c 4203     		.2byte	0x342
 2705 0c1e 00000000 		.4byte	.LFB9
 2706 0c22 18000000 		.4byte	.LFE9-.LFB9
 2707 0c26 01       		.uleb128 0x1
 2708 0c27 9C       		.byte	0x9c
 2709 0c28 360C0000 		.4byte	0xc36
 2710 0c2c 20       		.uleb128 0x20
 2711 0c2d 06000000 		.4byte	.LVL76
 2712 0c31 AC100000 		.4byte	0x10ac
 2713 0c35 00       		.byte	0
 2714 0c36 27       		.uleb128 0x27
 2715 0c37 300B0000 		.4byte	.LASF216
 2716 0c3b 01       		.byte	0x1
 2717 0c3c 5803     		.2byte	0x358
 2718 0c3e 00000000 		.4byte	.LFB10
 2719 0c42 02000000 		.4byte	.LFE10-.LFB10
 2720 0c46 01       		.uleb128 0x1
ARM GAS  C:\Users\Rafael\AppData\Local\Temp\ccwrXay6.s 			page 76


 2721 0c47 9C       		.byte	0x9c
 2722 0c48 800C0000 		.4byte	0xc80
 2723 0c4c 29       		.uleb128 0x29
 2724 0c4d 95140000 		.4byte	.LASF118
 2725 0c51 01       		.byte	0x1
 2726 0c52 5803     		.2byte	0x358
 2727 0c54 800C0000 		.4byte	0xc80
 2728 0c58 01       		.uleb128 0x1
 2729 0c59 50       		.byte	0x50
 2730 0c5a 29       		.uleb128 0x29
 2731 0c5b 47110000 		.4byte	.LASF190
 2732 0c5f 01       		.byte	0x1
 2733 0c60 5803     		.2byte	0x358
 2734 0c62 6B000000 		.4byte	0x6b
 2735 0c66 01       		.uleb128 0x1
 2736 0c67 51       		.byte	0x51
 2737 0c68 2A       		.uleb128 0x2a
 2738 0c69 6900     		.ascii	"i\000"
 2739 0c6b 01       		.byte	0x1
 2740 0c6c 5A03     		.2byte	0x35a
 2741 0c6e 6B000000 		.4byte	0x6b
 2742 0c72 2B       		.uleb128 0x2b
 2743 0c73 BA000000 		.4byte	.LASF194
 2744 0c77 01       		.byte	0x1
 2745 0c78 5B03     		.2byte	0x35b
 2746 0c7a 26060000 		.4byte	0x626
 2747 0c7e 00       		.byte	0
 2748 0c7f 00       		.byte	0
 2749 0c80 08       		.uleb128 0x8
 2750 0c81 04       		.byte	0x4
 2751 0c82 860C0000 		.4byte	0xc86
 2752 0c86 1E       		.uleb128 0x1e
 2753 0c87 B8030000 		.4byte	0x3b8
 2754 0c8b 21       		.uleb128 0x21
 2755 0c8c 24130000 		.4byte	.LASF217
 2756 0c90 01       		.byte	0x1
 2757 0c91 FC04     		.2byte	0x4fc
 2758 0c93 78030000 		.4byte	0x378
 2759 0c97 00000000 		.4byte	.LFB12
 2760 0c9b 4C000000 		.4byte	.LFE12-.LFB12
 2761 0c9f 01       		.uleb128 0x1
 2762 0ca0 9C       		.byte	0x9c
 2763 0ca1 220D0000 		.4byte	0xd22
 2764 0ca5 1B       		.uleb128 0x1b
 2765 0ca6 CC120000 		.4byte	.LASF189
 2766 0caa 01       		.byte	0x1
 2767 0cab FC04     		.2byte	0x4fc
 2768 0cad 9E080000 		.4byte	0x89e
 2769 0cb1 67030000 		.4byte	.LLST16
 2770 0cb5 1D       		.uleb128 0x1d
 2771 0cb6 57000000 		.4byte	.LASF199
 2772 0cba 01       		.byte	0x1
 2773 0cbb FE04     		.2byte	0x4fe
 2774 0cbd 78030000 		.4byte	0x378
 2775 0cc1 9E030000 		.4byte	.LLST17
 2776 0cc5 1C       		.uleb128 0x1c
 2777 0cc6 6900     		.ascii	"i\000"
ARM GAS  C:\Users\Rafael\AppData\Local\Temp\ccwrXay6.s 			page 77


 2778 0cc8 01       		.byte	0x1
 2779 0cc9 FF04     		.2byte	0x4ff
 2780 0ccb 6B000000 		.4byte	0x6b
 2781 0ccf BD030000 		.4byte	.LLST18
 2782 0cd3 1C       		.uleb128 0x1c
 2783 0cd4 70747200 		.ascii	"ptr\000"
 2784 0cd8 01       		.byte	0x1
 2785 0cd9 0005     		.2byte	0x500
 2786 0cdb 220D0000 		.4byte	0xd22
 2787 0cdf E7030000 		.4byte	.LLST19
 2788 0ce3 1D       		.uleb128 0x1d
 2789 0ce4 4E0E0000 		.4byte	.LASF218
 2790 0ce8 01       		.byte	0x1
 2791 0ce9 0105     		.2byte	0x501
 2792 0ceb 6B000000 		.4byte	0x6b
 2793 0cef FA030000 		.4byte	.LLST20
 2794 0cf3 26       		.uleb128 0x26
 2795 0cf4 36000000 		.4byte	.LVL88
 2796 0cf8 09080000 		.4byte	0x809
 2797 0cfc 0C0D0000 		.4byte	0xd0c
 2798 0d00 25       		.uleb128 0x25
 2799 0d01 01       		.uleb128 0x1
 2800 0d02 51       		.byte	0x51
 2801 0d03 01       		.uleb128 0x1
 2802 0d04 30       		.byte	0x30
 2803 0d05 25       		.uleb128 0x25
 2804 0d06 01       		.uleb128 0x1
 2805 0d07 50       		.byte	0x50
 2806 0d08 02       		.uleb128 0x2
 2807 0d09 74       		.byte	0x74
 2808 0d0a 00       		.sleb128 0
 2809 0d0b 00       		.byte	0
 2810 0d0c 24       		.uleb128 0x24
 2811 0d0d 3E000000 		.4byte	.LVL89
 2812 0d11 09080000 		.4byte	0x809
 2813 0d15 25       		.uleb128 0x25
 2814 0d16 01       		.uleb128 0x1
 2815 0d17 51       		.byte	0x51
 2816 0d18 01       		.uleb128 0x1
 2817 0d19 31       		.byte	0x31
 2818 0d1a 25       		.uleb128 0x25
 2819 0d1b 01       		.uleb128 0x1
 2820 0d1c 50       		.byte	0x50
 2821 0d1d 02       		.uleb128 0x2
 2822 0d1e 74       		.byte	0x74
 2823 0d1f 00       		.sleb128 0
 2824 0d20 00       		.byte	0
 2825 0d21 00       		.byte	0
 2826 0d22 08       		.uleb128 0x8
 2827 0d23 04       		.byte	0x4
 2828 0d24 9D000000 		.4byte	0x9d
 2829 0d28 21       		.uleb128 0x21
 2830 0d29 7E060000 		.4byte	.LASF219
 2831 0d2d 01       		.byte	0x1
 2832 0d2e 4405     		.2byte	0x544
 2833 0d30 78030000 		.4byte	0x378
 2834 0d34 00000000 		.4byte	.LFB13
ARM GAS  C:\Users\Rafael\AppData\Local\Temp\ccwrXay6.s 			page 78


 2835 0d38 34000000 		.4byte	.LFE13-.LFB13
 2836 0d3c 01       		.uleb128 0x1
 2837 0d3d 9C       		.byte	0x9c
 2838 0d3e 910D0000 		.4byte	0xd91
 2839 0d42 1B       		.uleb128 0x1b
 2840 0d43 CC120000 		.4byte	.LASF189
 2841 0d47 01       		.byte	0x1
 2842 0d48 4405     		.2byte	0x544
 2843 0d4a 220D0000 		.4byte	0xd22
 2844 0d4e 0D040000 		.4byte	.LLST21
 2845 0d52 1D       		.uleb128 0x1d
 2846 0d53 57000000 		.4byte	.LASF199
 2847 0d57 01       		.byte	0x1
 2848 0d58 4605     		.2byte	0x546
 2849 0d5a 78030000 		.4byte	0x378
 2850 0d5e 47040000 		.4byte	.LLST22
 2851 0d62 1D       		.uleb128 0x1d
 2852 0d63 4E0E0000 		.4byte	.LASF218
 2853 0d67 01       		.byte	0x1
 2854 0d68 4705     		.2byte	0x547
 2855 0d6a 6B000000 		.4byte	0x6b
 2856 0d6e 66040000 		.4byte	.LLST23
 2857 0d72 1C       		.uleb128 0x1c
 2858 0d73 6900     		.ascii	"i\000"
 2859 0d75 01       		.byte	0x1
 2860 0d76 4805     		.2byte	0x548
 2861 0d78 6B000000 		.4byte	0x6b
 2862 0d7c 79040000 		.4byte	.LLST24
 2863 0d80 1C       		.uleb128 0x1c
 2864 0d81 70747200 		.ascii	"ptr\000"
 2865 0d85 01       		.byte	0x1
 2866 0d86 4905     		.2byte	0x549
 2867 0d88 220D0000 		.4byte	0xd22
 2868 0d8c A3040000 		.4byte	.LLST25
 2869 0d90 00       		.byte	0
 2870 0d91 21       		.uleb128 0x21
 2871 0d92 18100000 		.4byte	.LASF220
 2872 0d96 01       		.byte	0x1
 2873 0d97 7605     		.2byte	0x576
 2874 0d99 77000000 		.4byte	0x77
 2875 0d9d 00000000 		.4byte	.LFB14
 2876 0da1 0A000000 		.4byte	.LFE14-.LFB14
 2877 0da5 01       		.uleb128 0x1
 2878 0da6 9C       		.byte	0x9c
 2879 0da7 BC0D0000 		.4byte	0xdbc
 2880 0dab 2C       		.uleb128 0x2c
 2881 0dac 70747200 		.ascii	"ptr\000"
 2882 0db0 01       		.byte	0x1
 2883 0db1 7605     		.2byte	0x576
 2884 0db3 BC0D0000 		.4byte	0xdbc
 2885 0db7 B6040000 		.4byte	.LLST26
 2886 0dbb 00       		.byte	0
 2887 0dbc 08       		.uleb128 0x8
 2888 0dbd 04       		.byte	0x4
 2889 0dbe C20D0000 		.4byte	0xdc2
 2890 0dc2 1E       		.uleb128 0x1e
 2891 0dc3 6B000000 		.4byte	0x6b
ARM GAS  C:\Users\Rafael\AppData\Local\Temp\ccwrXay6.s 			page 79


 2892 0dc7 27       		.uleb128 0x27
 2893 0dc8 180E0000 		.4byte	.LASF221
 2894 0dcc 01       		.byte	0x1
 2895 0dcd 8905     		.2byte	0x589
 2896 0dcf 00000000 		.4byte	.LFB15
 2897 0dd3 08000000 		.4byte	.LFE15-.LFB15
 2898 0dd7 01       		.uleb128 0x1
 2899 0dd8 9C       		.byte	0x9c
 2900 0dd9 FC0D0000 		.4byte	0xdfc
 2901 0ddd 2D       		.uleb128 0x2d
 2902 0dde 70747200 		.ascii	"ptr\000"
 2903 0de2 01       		.byte	0x1
 2904 0de3 8905     		.2byte	0x589
 2905 0de5 26060000 		.4byte	0x626
 2906 0de9 01       		.uleb128 0x1
 2907 0dea 50       		.byte	0x50
 2908 0deb 1B       		.uleb128 0x1b
 2909 0dec D3100000 		.4byte	.LASF222
 2910 0df0 01       		.byte	0x1
 2911 0df1 8905     		.2byte	0x589
 2912 0df3 77000000 		.4byte	0x77
 2913 0df7 D7040000 		.4byte	.LLST27
 2914 0dfb 00       		.byte	0
 2915 0dfc 2E       		.uleb128 0x2e
 2916 0dfd 4D070000 		.4byte	.LASF223
 2917 0e01 01       		.byte	0x1
 2918 0e02 84       		.byte	0x84
 2919 0e03 6B000000 		.4byte	0x6b
 2920 0e07 05       		.uleb128 0x5
 2921 0e08 03       		.byte	0x3
 2922 0e09 21000000 		.4byte	cyBle_pendingFlashClearCccdHandle
 2923 0e0d 2F       		.uleb128 0x2f
 2924 0e0e E2100000 		.4byte	.LASF224
 2925 0e12 01       		.byte	0x1
 2926 0e13 89       		.byte	0x89
 2927 0e14 3D070000 		.4byte	0x73d
 2928 0e18 05       		.uleb128 0x5
 2929 0e19 03       		.byte	0x3
 2930 0e1a 00000000 		.4byte	CyBle_ApplCallback
 2931 0e1e 2F       		.uleb128 0x2f
 2932 0e1f D7120000 		.4byte	.LASF225
 2933 0e23 01       		.byte	0x1
 2934 0e24 2B       		.byte	0x2b
 2935 0e25 6B000000 		.4byte	0x6b
 2936 0e29 05       		.uleb128 0x5
 2937 0e2a 03       		.byte	0x3
 2938 0e2b 00000000 		.4byte	cyBle_initVar
 2939 0e2f 0F       		.uleb128 0xf
 2940 0e30 6B000000 		.4byte	0x6b
 2941 0e34 400E0000 		.4byte	0xe40
 2942 0e38 18       		.uleb128 0x18
 2943 0e39 C0000000 		.4byte	0xc0
 2944 0e3d DF0A     		.2byte	0xadf
 2945 0e3f 00       		.byte	0
 2946 0e40 2F       		.uleb128 0x2f
 2947 0e41 80140000 		.4byte	.LASF226
 2948 0e45 01       		.byte	0x1
ARM GAS  C:\Users\Rafael\AppData\Local\Temp\ccwrXay6.s 			page 80


 2949 0e46 36       		.byte	0x36
 2950 0e47 2F0E0000 		.4byte	0xe2f
 2951 0e4b 05       		.uleb128 0x5
 2952 0e4c 03       		.byte	0x3
 2953 0e4d 00000000 		.4byte	cyBle_stackMemoryRam
 2954 0e51 30       		.uleb128 0x30
 2955 0e52 9C140000 		.4byte	.LASF227
 2956 0e56 08       		.byte	0x8
 2957 0e57 8602     		.2byte	0x286
 2958 0e59 B0000000 		.4byte	0xb0
 2959 0e5d 2F       		.uleb128 0x2f
 2960 0e5e 9D030000 		.4byte	.LASF228
 2961 0e62 01       		.byte	0x1
 2962 0e63 8A       		.byte	0x8a
 2963 0e64 B8030000 		.4byte	0x3b8
 2964 0e68 05       		.uleb128 0x5
 2965 0e69 03       		.byte	0x3
 2966 0e6a 00000000 		.4byte	cyBle_deviceAddress
 2967 0e6e 2F       		.uleb128 0x2f
 2968 0e6f 57080000 		.4byte	.LASF229
 2969 0e73 01       		.byte	0x1
 2970 0e74 8B       		.byte	0x8b
 2971 0e75 C20B0000 		.4byte	0xbc2
 2972 0e79 05       		.uleb128 0x5
 2973 0e7a 03       		.byte	0x3
 2974 0e7b 00000000 		.4byte	cyBle_sflashDeviceAddress
 2975 0e7f 2F       		.uleb128 0x2f
 2976 0e80 75030000 		.4byte	.LASF230
 2977 0e84 01       		.byte	0x1
 2978 0e85 3C       		.byte	0x3c
 2979 0e86 41050000 		.4byte	0x541
 2980 0e8a 05       		.uleb128 0x5
 2981 0e8b 03       		.byte	0x3
 2982 0e8c 00000000 		.4byte	cyBle_discoveryParam
 2983 0e90 2F       		.uleb128 0x2f
 2984 0e91 E9150000 		.4byte	.LASF231
 2985 0e95 01       		.byte	0x1
 2986 0e96 48       		.byte	0x48
 2987 0e97 81050000 		.4byte	0x581
 2988 0e9b 05       		.uleb128 0x5
 2989 0e9c 03       		.byte	0x3
 2990 0e9d 00000000 		.4byte	cyBle_discoveryData
 2991 0ea1 2F       		.uleb128 0x2f
 2992 0ea2 EB0E0000 		.4byte	.LASF232
 2993 0ea6 01       		.byte	0x1
 2994 0ea7 51       		.byte	0x51
 2995 0ea8 B1050000 		.4byte	0x5b1
 2996 0eac 05       		.uleb128 0x5
 2997 0ead 03       		.byte	0x3
 2998 0eae 00000000 		.4byte	cyBle_scanRspData
 2999 0eb2 2F       		.uleb128 0x2f
 3000 0eb3 53140000 		.4byte	.LASF233
 3001 0eb7 01       		.byte	0x1
 3002 0eb8 61       		.byte	0x61
 3003 0eb9 1A060000 		.4byte	0x61a
 3004 0ebd 05       		.uleb128 0x5
 3005 0ebe 03       		.byte	0x3
ARM GAS  C:\Users\Rafael\AppData\Local\Temp\ccwrXay6.s 			page 81


 3006 0ebf 00000000 		.4byte	cyBle_discoveryModeInfo
 3007 0ec3 2F       		.uleb128 0x2f
 3008 0ec4 68110000 		.4byte	.LASF234
 3009 0ec8 01       		.byte	0x1
 3010 0ec9 81       		.byte	0x81
 3011 0eca 6B000000 		.4byte	0x6b
 3012 0ece 05       		.uleb128 0x5
 3013 0ecf 03       		.byte	0x3
 3014 0ed0 00000000 		.4byte	cyBle_pendingFlashWrite
 3015 0ed4 2F       		.uleb128 0x2f
 3016 0ed5 00000000 		.4byte	.LASF235
 3017 0ed9 01       		.byte	0x1
 3018 0eda 80       		.byte	0x80
 3019 0edb 6B000000 		.4byte	0x6b
 3020 0edf 05       		.uleb128 0x5
 3021 0ee0 03       		.byte	0x3
 3022 0ee1 00000000 		.4byte	cyBle_peerBonding
 3023 0ee5 0F       		.uleb128 0xf
 3024 0ee6 31070000 		.4byte	0x731
 3025 0eea F50E0000 		.4byte	0xef5
 3026 0eee 10       		.uleb128 0x10
 3027 0eef C0000000 		.4byte	0xc0
 3028 0ef3 11       		.byte	0x11
 3029 0ef4 00       		.byte	0
 3030 0ef5 31       		.uleb128 0x31
 3031 0ef6 2D0D0000 		.4byte	.LASF236
 3032 0efa 09       		.byte	0x9
 3033 0efb E8       		.byte	0xe8
 3034 0efc 000F0000 		.4byte	0xf00
 3035 0f00 1E       		.uleb128 0x1e
 3036 0f01 E50E0000 		.4byte	0xee5
 3037 0f05 31       		.uleb128 0x31
 3038 0f06 29150000 		.4byte	.LASF237
 3039 0f0a 09       		.byte	0x9
 3040 0f0b EC       		.byte	0xec
 3041 0f0c 060B0000 		.4byte	0xb06
 3042 0f10 31       		.uleb128 0x31
 3043 0f11 E30B0000 		.4byte	.LASF238
 3044 0f15 09       		.byte	0x9
 3045 0f16 F4       		.byte	0xf4
 3046 0f17 1B0F0000 		.4byte	0xf1b
 3047 0f1b 1E       		.uleb128 0x1e
 3048 0f1c C3070000 		.4byte	0x7c3
 3049 0f20 30       		.uleb128 0x30
 3050 0f21 EE110000 		.4byte	.LASF239
 3051 0f25 0A       		.byte	0xa
 3052 0f26 DA09     		.2byte	0x9da
 3053 0f28 F6070000 		.4byte	0x7f6
 3054 0f2c 30       		.uleb128 0x30
 3055 0f2d 09130000 		.4byte	.LASF240
 3056 0f31 0A       		.byte	0xa
 3057 0f32 DB09     		.2byte	0x9db
 3058 0f34 50060000 		.4byte	0x650
 3059 0f38 30       		.uleb128 0x30
 3060 0f39 1F0B0000 		.4byte	.LASF241
 3061 0f3d 0A       		.byte	0xa
 3062 0f3e DC09     		.2byte	0x9dc
ARM GAS  C:\Users\Rafael\AppData\Local\Temp\ccwrXay6.s 			page 82


 3063 0f40 B0000000 		.4byte	0xb0
 3064 0f44 30       		.uleb128 0x30
 3065 0f45 970C0000 		.4byte	.LASF242
 3066 0f49 0A       		.byte	0xa
 3067 0f4a DF09     		.2byte	0x9df
 3068 0f4c 6B000000 		.4byte	0x6b
 3069 0f50 32       		.uleb128 0x32
 3070 0f51 830E0000 		.4byte	.LASF246
 3071 0f55 0B       		.byte	0xb
 3072 0f56 A5       		.byte	0xa5
 3073 0f57 33       		.uleb128 0x33
 3074 0f58 62090000 		.4byte	.LASF243
 3075 0f5c 04       		.byte	0x4
 3076 0f5d 8F04     		.2byte	0x48f
 3077 0f5f 78030000 		.4byte	0x378
 3078 0f63 720F0000 		.4byte	0xf72
 3079 0f67 0A       		.uleb128 0xa
 3080 0f68 720F0000 		.4byte	0xf72
 3081 0f6c 0A       		.uleb128 0xa
 3082 0f6d 5C060000 		.4byte	0x65c
 3083 0f71 00       		.byte	0
 3084 0f72 08       		.uleb128 0x8
 3085 0f73 04       		.byte	0x4
 3086 0f74 780F0000 		.4byte	0xf78
 3087 0f78 1E       		.uleb128 0x1e
 3088 0f79 91040000 		.4byte	0x491
 3089 0f7d 34       		.uleb128 0x34
 3090 0f7e E4140000 		.4byte	.LASF259
 3091 0f82 C7000000 		.4byte	0xc7
 3092 0f86 9A0F0000 		.4byte	0xf9a
 3093 0f8a 0A       		.uleb128 0xa
 3094 0f8b C7000000 		.4byte	0xc7
 3095 0f8f 0A       		.uleb128 0xa
 3096 0f90 02080000 		.4byte	0x802
 3097 0f94 0A       		.uleb128 0xa
 3098 0f95 C0000000 		.4byte	0xc0
 3099 0f99 00       		.byte	0
 3100 0f9a 33       		.uleb128 0x33
 3101 0f9b 0E060000 		.4byte	.LASF244
 3102 0f9f 04       		.byte	0x4
 3103 0fa0 5705     		.2byte	0x557
 3104 0fa2 78030000 		.4byte	0x378
 3105 0fa6 CE0F0000 		.4byte	0xfce
 3106 0faa 0A       		.uleb128 0xa
 3107 0fab C9000000 		.4byte	0xc9
 3108 0faf 0A       		.uleb128 0xa
 3109 0fb0 26060000 		.4byte	0x626
 3110 0fb4 0A       		.uleb128 0xa
 3111 0fb5 77000000 		.4byte	0x77
 3112 0fb9 0A       		.uleb128 0xa
 3113 0fba CE0F0000 		.4byte	0xfce
 3114 0fbe 0A       		.uleb128 0xa
 3115 0fbf 6B000000 		.4byte	0x6b
 3116 0fc3 0A       		.uleb128 0xa
 3117 0fc4 BC0D0000 		.4byte	0xdbc
 3118 0fc8 0A       		.uleb128 0xa
 3119 0fc9 83000000 		.4byte	0x83
ARM GAS  C:\Users\Rafael\AppData\Local\Temp\ccwrXay6.s 			page 83


 3120 0fcd 00       		.byte	0
 3121 0fce 08       		.uleb128 0x8
 3122 0fcf 04       		.byte	0x4
 3123 0fd0 E8030000 		.4byte	0x3e8
 3124 0fd4 33       		.uleb128 0x33
 3125 0fd5 86130000 		.4byte	.LASF245
 3126 0fd9 07       		.byte	0x7
 3127 0fda 4E01     		.2byte	0x14e
 3128 0fdc 78030000 		.4byte	0x378
 3129 0fe0 F40F0000 		.4byte	0xff4
 3130 0fe4 0A       		.uleb128 0xa
 3131 0fe5 F40F0000 		.4byte	0xff4
 3132 0fe9 0A       		.uleb128 0xa
 3133 0fea 77000000 		.4byte	0x77
 3134 0fee 0A       		.uleb128 0xa
 3135 0fef 77000000 		.4byte	0x77
 3136 0ff3 00       		.byte	0
 3137 0ff4 08       		.uleb128 0x8
 3138 0ff5 04       		.byte	0x4
 3139 0ff6 FA0F0000 		.4byte	0xffa
 3140 0ffa 1E       		.uleb128 0x1e
 3141 0ffb 31070000 		.4byte	0x731
 3142 0fff 35       		.uleb128 0x35
 3143 1000 8B070000 		.4byte	.LASF247
 3144 1004 04       		.byte	0x4
 3145 1005 7205     		.2byte	0x572
 3146 1007 36       		.uleb128 0x36
 3147 1008 8A030000 		.4byte	.LASF248
 3148 100c 0C       		.byte	0xc
 3149 100d 7F       		.byte	0x7f
 3150 100e 78030000 		.4byte	0x378
 3151 1012 2B100000 		.4byte	0x102b
 3152 1016 0A       		.uleb128 0xa
 3153 1017 26060000 		.4byte	0x626
 3154 101b 0A       		.uleb128 0xa
 3155 101c BC0D0000 		.4byte	0xdbc
 3156 1020 0A       		.uleb128 0xa
 3157 1021 83000000 		.4byte	0x83
 3158 1025 0A       		.uleb128 0xa
 3159 1026 6B000000 		.4byte	0x6b
 3160 102a 00       		.byte	0
 3161 102b 36       		.uleb128 0x36
 3162 102c 1E030000 		.4byte	.LASF249
 3163 1030 0C       		.byte	0xc
 3164 1031 61       		.byte	0x61
 3165 1032 78030000 		.4byte	0x378
 3166 1036 40100000 		.4byte	0x1040
 3167 103a 0A       		.uleb128 0xa
 3168 103b 6B000000 		.4byte	0x6b
 3169 103f 00       		.byte	0
 3170 1040 36       		.uleb128 0x36
 3171 1041 0A120000 		.4byte	.LASF250
 3172 1045 0D       		.byte	0xd
 3173 1046 16       		.byte	0x16
 3174 1047 5D000000 		.4byte	0x5d
 3175 104b 5F100000 		.4byte	0x105f
 3176 104f 0A       		.uleb128 0xa
ARM GAS  C:\Users\Rafael\AppData\Local\Temp\ccwrXay6.s 			page 84


 3177 1050 02080000 		.4byte	0x802
 3178 1054 0A       		.uleb128 0xa
 3179 1055 02080000 		.4byte	0x802
 3180 1059 0A       		.uleb128 0xa
 3181 105a B5000000 		.4byte	0xb5
 3182 105e 00       		.byte	0
 3183 105f 33       		.uleb128 0x33
 3184 1060 18010000 		.4byte	.LASF251
 3185 1064 05       		.byte	0x5
 3186 1065 0705     		.2byte	0x507
 3187 1067 78030000 		.4byte	0x378
 3188 106b 7A100000 		.4byte	0x107a
 3189 106f 0A       		.uleb128 0xa
 3190 1070 26060000 		.4byte	0x626
 3191 1074 0A       		.uleb128 0xa
 3192 1075 C20B0000 		.4byte	0xbc2
 3193 1079 00       		.byte	0
 3194 107a 33       		.uleb128 0x33
 3195 107b BF110000 		.4byte	.LASF252
 3196 107f 05       		.byte	0x5
 3197 1080 1308     		.2byte	0x813
 3198 1082 78030000 		.4byte	0x378
 3199 1086 90100000 		.4byte	0x1090
 3200 108a 0A       		.uleb128 0xa
 3201 108b C20B0000 		.4byte	0xbc2
 3202 108f 00       		.byte	0
 3203 1090 33       		.uleb128 0x33
 3204 1091 D90A0000 		.4byte	.LASF253
 3205 1095 05       		.byte	0x5
 3206 1096 6305     		.2byte	0x563
 3207 1098 78030000 		.4byte	0x378
 3208 109c A6100000 		.4byte	0x10a6
 3209 10a0 0A       		.uleb128 0xa
 3210 10a1 A6100000 		.4byte	0x10a6
 3211 10a5 00       		.byte	0
 3212 10a6 08       		.uleb128 0x8
 3213 10a7 04       		.byte	0x4
 3214 10a8 1A060000 		.4byte	0x61a
 3215 10ac 35       		.uleb128 0x35
 3216 10ad 62060000 		.4byte	.LASF254
 3217 10b1 05       		.byte	0x5
 3218 10b2 7405     		.2byte	0x574
 3219 10b4 00       		.byte	0
 3220              		.section	.debug_abbrev,"",%progbits
 3221              	.Ldebug_abbrev0:
 3222 0000 01       		.uleb128 0x1
 3223 0001 11       		.uleb128 0x11
 3224 0002 01       		.byte	0x1
 3225 0003 25       		.uleb128 0x25
 3226 0004 0E       		.uleb128 0xe
 3227 0005 13       		.uleb128 0x13
 3228 0006 0B       		.uleb128 0xb
 3229 0007 03       		.uleb128 0x3
 3230 0008 0E       		.uleb128 0xe
 3231 0009 1B       		.uleb128 0x1b
 3232 000a 0E       		.uleb128 0xe
 3233 000b 55       		.uleb128 0x55
ARM GAS  C:\Users\Rafael\AppData\Local\Temp\ccwrXay6.s 			page 85


 3234 000c 17       		.uleb128 0x17
 3235 000d 11       		.uleb128 0x11
 3236 000e 01       		.uleb128 0x1
 3237 000f 10       		.uleb128 0x10
 3238 0010 17       		.uleb128 0x17
 3239 0011 00       		.byte	0
 3240 0012 00       		.byte	0
 3241 0013 02       		.uleb128 0x2
 3242 0014 24       		.uleb128 0x24
 3243 0015 00       		.byte	0
 3244 0016 0B       		.uleb128 0xb
 3245 0017 0B       		.uleb128 0xb
 3246 0018 3E       		.uleb128 0x3e
 3247 0019 0B       		.uleb128 0xb
 3248 001a 03       		.uleb128 0x3
 3249 001b 0E       		.uleb128 0xe
 3250 001c 00       		.byte	0
 3251 001d 00       		.byte	0
 3252 001e 03       		.uleb128 0x3
 3253 001f 24       		.uleb128 0x24
 3254 0020 00       		.byte	0
 3255 0021 0B       		.uleb128 0xb
 3256 0022 0B       		.uleb128 0xb
 3257 0023 3E       		.uleb128 0x3e
 3258 0024 0B       		.uleb128 0xb
 3259 0025 03       		.uleb128 0x3
 3260 0026 08       		.uleb128 0x8
 3261 0027 00       		.byte	0
 3262 0028 00       		.byte	0
 3263 0029 04       		.uleb128 0x4
 3264 002a 16       		.uleb128 0x16
 3265 002b 00       		.byte	0
 3266 002c 03       		.uleb128 0x3
 3267 002d 0E       		.uleb128 0xe
 3268 002e 3A       		.uleb128 0x3a
 3269 002f 0B       		.uleb128 0xb
 3270 0030 3B       		.uleb128 0x3b
 3271 0031 05       		.uleb128 0x5
 3272 0032 49       		.uleb128 0x49
 3273 0033 13       		.uleb128 0x13
 3274 0034 00       		.byte	0
 3275 0035 00       		.byte	0
 3276 0036 05       		.uleb128 0x5
 3277 0037 35       		.uleb128 0x35
 3278 0038 00       		.byte	0
 3279 0039 49       		.uleb128 0x49
 3280 003a 13       		.uleb128 0x13
 3281 003b 00       		.byte	0
 3282 003c 00       		.byte	0
 3283 003d 06       		.uleb128 0x6
 3284 003e 16       		.uleb128 0x16
 3285 003f 00       		.byte	0
 3286 0040 03       		.uleb128 0x3
 3287 0041 0E       		.uleb128 0xe
 3288 0042 3A       		.uleb128 0x3a
 3289 0043 0B       		.uleb128 0xb
 3290 0044 3B       		.uleb128 0x3b
ARM GAS  C:\Users\Rafael\AppData\Local\Temp\ccwrXay6.s 			page 86


 3291 0045 0B       		.uleb128 0xb
 3292 0046 49       		.uleb128 0x49
 3293 0047 13       		.uleb128 0x13
 3294 0048 00       		.byte	0
 3295 0049 00       		.byte	0
 3296 004a 07       		.uleb128 0x7
 3297 004b 0F       		.uleb128 0xf
 3298 004c 00       		.byte	0
 3299 004d 0B       		.uleb128 0xb
 3300 004e 0B       		.uleb128 0xb
 3301 004f 00       		.byte	0
 3302 0050 00       		.byte	0
 3303 0051 08       		.uleb128 0x8
 3304 0052 0F       		.uleb128 0xf
 3305 0053 00       		.byte	0
 3306 0054 0B       		.uleb128 0xb
 3307 0055 0B       		.uleb128 0xb
 3308 0056 49       		.uleb128 0x49
 3309 0057 13       		.uleb128 0x13
 3310 0058 00       		.byte	0
 3311 0059 00       		.byte	0
 3312 005a 09       		.uleb128 0x9
 3313 005b 15       		.uleb128 0x15
 3314 005c 01       		.byte	0x1
 3315 005d 27       		.uleb128 0x27
 3316 005e 19       		.uleb128 0x19
 3317 005f 01       		.uleb128 0x1
 3318 0060 13       		.uleb128 0x13
 3319 0061 00       		.byte	0
 3320 0062 00       		.byte	0
 3321 0063 0A       		.uleb128 0xa
 3322 0064 05       		.uleb128 0x5
 3323 0065 00       		.byte	0
 3324 0066 49       		.uleb128 0x49
 3325 0067 13       		.uleb128 0x13
 3326 0068 00       		.byte	0
 3327 0069 00       		.byte	0
 3328 006a 0B       		.uleb128 0xb
 3329 006b 04       		.uleb128 0x4
 3330 006c 01       		.byte	0x1
 3331 006d 0B       		.uleb128 0xb
 3332 006e 0B       		.uleb128 0xb
 3333 006f 3A       		.uleb128 0x3a
 3334 0070 0B       		.uleb128 0xb
 3335 0071 3B       		.uleb128 0x3b
 3336 0072 05       		.uleb128 0x5
 3337 0073 01       		.uleb128 0x1
 3338 0074 13       		.uleb128 0x13
 3339 0075 00       		.byte	0
 3340 0076 00       		.byte	0
 3341 0077 0C       		.uleb128 0xc
 3342 0078 28       		.uleb128 0x28
 3343 0079 00       		.byte	0
 3344 007a 03       		.uleb128 0x3
 3345 007b 0E       		.uleb128 0xe
 3346 007c 1C       		.uleb128 0x1c
 3347 007d 0D       		.uleb128 0xd
ARM GAS  C:\Users\Rafael\AppData\Local\Temp\ccwrXay6.s 			page 87


 3348 007e 00       		.byte	0
 3349 007f 00       		.byte	0
 3350 0080 0D       		.uleb128 0xd
 3351 0081 13       		.uleb128 0x13
 3352 0082 01       		.byte	0x1
 3353 0083 0B       		.uleb128 0xb
 3354 0084 0B       		.uleb128 0xb
 3355 0085 3A       		.uleb128 0x3a
 3356 0086 0B       		.uleb128 0xb
 3357 0087 3B       		.uleb128 0x3b
 3358 0088 05       		.uleb128 0x5
 3359 0089 01       		.uleb128 0x1
 3360 008a 13       		.uleb128 0x13
 3361 008b 00       		.byte	0
 3362 008c 00       		.byte	0
 3363 008d 0E       		.uleb128 0xe
 3364 008e 0D       		.uleb128 0xd
 3365 008f 00       		.byte	0
 3366 0090 03       		.uleb128 0x3
 3367 0091 0E       		.uleb128 0xe
 3368 0092 3A       		.uleb128 0x3a
 3369 0093 0B       		.uleb128 0xb
 3370 0094 3B       		.uleb128 0x3b
 3371 0095 05       		.uleb128 0x5
 3372 0096 49       		.uleb128 0x49
 3373 0097 13       		.uleb128 0x13
 3374 0098 38       		.uleb128 0x38
 3375 0099 0B       		.uleb128 0xb
 3376 009a 00       		.byte	0
 3377 009b 00       		.byte	0
 3378 009c 0F       		.uleb128 0xf
 3379 009d 01       		.uleb128 0x1
 3380 009e 01       		.byte	0x1
 3381 009f 49       		.uleb128 0x49
 3382 00a0 13       		.uleb128 0x13
 3383 00a1 01       		.uleb128 0x1
 3384 00a2 13       		.uleb128 0x13
 3385 00a3 00       		.byte	0
 3386 00a4 00       		.byte	0
 3387 00a5 10       		.uleb128 0x10
 3388 00a6 21       		.uleb128 0x21
 3389 00a7 00       		.byte	0
 3390 00a8 49       		.uleb128 0x49
 3391 00a9 13       		.uleb128 0x13
 3392 00aa 2F       		.uleb128 0x2f
 3393 00ab 0B       		.uleb128 0xb
 3394 00ac 00       		.byte	0
 3395 00ad 00       		.byte	0
 3396 00ae 11       		.uleb128 0x11
 3397 00af 04       		.uleb128 0x4
 3398 00b0 01       		.byte	0x1
 3399 00b1 0B       		.uleb128 0xb
 3400 00b2 0B       		.uleb128 0xb
 3401 00b3 3A       		.uleb128 0x3a
 3402 00b4 0B       		.uleb128 0xb
 3403 00b5 3B       		.uleb128 0x3b
 3404 00b6 0B       		.uleb128 0xb
ARM GAS  C:\Users\Rafael\AppData\Local\Temp\ccwrXay6.s 			page 88


 3405 00b7 01       		.uleb128 0x1
 3406 00b8 13       		.uleb128 0x13
 3407 00b9 00       		.byte	0
 3408 00ba 00       		.byte	0
 3409 00bb 12       		.uleb128 0x12
 3410 00bc 13       		.uleb128 0x13
 3411 00bd 01       		.byte	0x1
 3412 00be 0B       		.uleb128 0xb
 3413 00bf 0B       		.uleb128 0xb
 3414 00c0 3A       		.uleb128 0x3a
 3415 00c1 0B       		.uleb128 0xb
 3416 00c2 3B       		.uleb128 0x3b
 3417 00c3 0B       		.uleb128 0xb
 3418 00c4 01       		.uleb128 0x1
 3419 00c5 13       		.uleb128 0x13
 3420 00c6 00       		.byte	0
 3421 00c7 00       		.byte	0
 3422 00c8 13       		.uleb128 0x13
 3423 00c9 0D       		.uleb128 0xd
 3424 00ca 00       		.byte	0
 3425 00cb 03       		.uleb128 0x3
 3426 00cc 0E       		.uleb128 0xe
 3427 00cd 3A       		.uleb128 0x3a
 3428 00ce 0B       		.uleb128 0xb
 3429 00cf 3B       		.uleb128 0x3b
 3430 00d0 0B       		.uleb128 0xb
 3431 00d1 49       		.uleb128 0x49
 3432 00d2 13       		.uleb128 0x13
 3433 00d3 38       		.uleb128 0x38
 3434 00d4 0B       		.uleb128 0xb
 3435 00d5 00       		.byte	0
 3436 00d6 00       		.byte	0
 3437 00d7 14       		.uleb128 0x14
 3438 00d8 17       		.uleb128 0x17
 3439 00d9 01       		.byte	0x1
 3440 00da 0B       		.uleb128 0xb
 3441 00db 0B       		.uleb128 0xb
 3442 00dc 3A       		.uleb128 0x3a
 3443 00dd 0B       		.uleb128 0xb
 3444 00de 3B       		.uleb128 0x3b
 3445 00df 0B       		.uleb128 0xb
 3446 00e0 01       		.uleb128 0x1
 3447 00e1 13       		.uleb128 0x13
 3448 00e2 00       		.byte	0
 3449 00e3 00       		.byte	0
 3450 00e4 15       		.uleb128 0x15
 3451 00e5 0D       		.uleb128 0xd
 3452 00e6 00       		.byte	0
 3453 00e7 03       		.uleb128 0x3
 3454 00e8 0E       		.uleb128 0xe
 3455 00e9 3A       		.uleb128 0x3a
 3456 00ea 0B       		.uleb128 0xb
 3457 00eb 3B       		.uleb128 0x3b
 3458 00ec 0B       		.uleb128 0xb
 3459 00ed 49       		.uleb128 0x49
 3460 00ee 13       		.uleb128 0x13
 3461 00ef 00       		.byte	0
ARM GAS  C:\Users\Rafael\AppData\Local\Temp\ccwrXay6.s 			page 89


 3462 00f0 00       		.byte	0
 3463 00f1 16       		.uleb128 0x16
 3464 00f2 13       		.uleb128 0x13
 3465 00f3 01       		.byte	0x1
 3466 00f4 0B       		.uleb128 0xb
 3467 00f5 05       		.uleb128 0x5
 3468 00f6 3A       		.uleb128 0x3a
 3469 00f7 0B       		.uleb128 0xb
 3470 00f8 3B       		.uleb128 0x3b
 3471 00f9 0B       		.uleb128 0xb
 3472 00fa 01       		.uleb128 0x1
 3473 00fb 13       		.uleb128 0x13
 3474 00fc 00       		.byte	0
 3475 00fd 00       		.byte	0
 3476 00fe 17       		.uleb128 0x17
 3477 00ff 0D       		.uleb128 0xd
 3478 0100 00       		.byte	0
 3479 0101 03       		.uleb128 0x3
 3480 0102 0E       		.uleb128 0xe
 3481 0103 3A       		.uleb128 0x3a
 3482 0104 0B       		.uleb128 0xb
 3483 0105 3B       		.uleb128 0x3b
 3484 0106 0B       		.uleb128 0xb
 3485 0107 49       		.uleb128 0x49
 3486 0108 13       		.uleb128 0x13
 3487 0109 38       		.uleb128 0x38
 3488 010a 05       		.uleb128 0x5
 3489 010b 00       		.byte	0
 3490 010c 00       		.byte	0
 3491 010d 18       		.uleb128 0x18
 3492 010e 21       		.uleb128 0x21
 3493 010f 00       		.byte	0
 3494 0110 49       		.uleb128 0x49
 3495 0111 13       		.uleb128 0x13
 3496 0112 2F       		.uleb128 0x2f
 3497 0113 05       		.uleb128 0x5
 3498 0114 00       		.byte	0
 3499 0115 00       		.byte	0
 3500 0116 19       		.uleb128 0x19
 3501 0117 26       		.uleb128 0x26
 3502 0118 00       		.byte	0
 3503 0119 00       		.byte	0
 3504 011a 00       		.byte	0
 3505 011b 1A       		.uleb128 0x1a
 3506 011c 2E       		.uleb128 0x2e
 3507 011d 01       		.byte	0x1
 3508 011e 03       		.uleb128 0x3
 3509 011f 0E       		.uleb128 0xe
 3510 0120 3A       		.uleb128 0x3a
 3511 0121 0B       		.uleb128 0xb
 3512 0122 3B       		.uleb128 0x3b
 3513 0123 05       		.uleb128 0x5
 3514 0124 27       		.uleb128 0x27
 3515 0125 19       		.uleb128 0x19
 3516 0126 11       		.uleb128 0x11
 3517 0127 01       		.uleb128 0x1
 3518 0128 12       		.uleb128 0x12
ARM GAS  C:\Users\Rafael\AppData\Local\Temp\ccwrXay6.s 			page 90


 3519 0129 06       		.uleb128 0x6
 3520 012a 40       		.uleb128 0x40
 3521 012b 18       		.uleb128 0x18
 3522 012c 9742     		.uleb128 0x2117
 3523 012e 19       		.uleb128 0x19
 3524 012f 01       		.uleb128 0x1
 3525 0130 13       		.uleb128 0x13
 3526 0131 00       		.byte	0
 3527 0132 00       		.byte	0
 3528 0133 1B       		.uleb128 0x1b
 3529 0134 05       		.uleb128 0x5
 3530 0135 00       		.byte	0
 3531 0136 03       		.uleb128 0x3
 3532 0137 0E       		.uleb128 0xe
 3533 0138 3A       		.uleb128 0x3a
 3534 0139 0B       		.uleb128 0xb
 3535 013a 3B       		.uleb128 0x3b
 3536 013b 05       		.uleb128 0x5
 3537 013c 49       		.uleb128 0x49
 3538 013d 13       		.uleb128 0x13
 3539 013e 02       		.uleb128 0x2
 3540 013f 17       		.uleb128 0x17
 3541 0140 00       		.byte	0
 3542 0141 00       		.byte	0
 3543 0142 1C       		.uleb128 0x1c
 3544 0143 34       		.uleb128 0x34
 3545 0144 00       		.byte	0
 3546 0145 03       		.uleb128 0x3
 3547 0146 08       		.uleb128 0x8
 3548 0147 3A       		.uleb128 0x3a
 3549 0148 0B       		.uleb128 0xb
 3550 0149 3B       		.uleb128 0x3b
 3551 014a 05       		.uleb128 0x5
 3552 014b 49       		.uleb128 0x49
 3553 014c 13       		.uleb128 0x13
 3554 014d 02       		.uleb128 0x2
 3555 014e 17       		.uleb128 0x17
 3556 014f 00       		.byte	0
 3557 0150 00       		.byte	0
 3558 0151 1D       		.uleb128 0x1d
 3559 0152 34       		.uleb128 0x34
 3560 0153 00       		.byte	0
 3561 0154 03       		.uleb128 0x3
 3562 0155 0E       		.uleb128 0xe
 3563 0156 3A       		.uleb128 0x3a
 3564 0157 0B       		.uleb128 0xb
 3565 0158 3B       		.uleb128 0x3b
 3566 0159 05       		.uleb128 0x5
 3567 015a 49       		.uleb128 0x49
 3568 015b 13       		.uleb128 0x13
 3569 015c 02       		.uleb128 0x2
 3570 015d 17       		.uleb128 0x17
 3571 015e 00       		.byte	0
 3572 015f 00       		.byte	0
 3573 0160 1E       		.uleb128 0x1e
 3574 0161 26       		.uleb128 0x26
 3575 0162 00       		.byte	0
ARM GAS  C:\Users\Rafael\AppData\Local\Temp\ccwrXay6.s 			page 91


 3576 0163 49       		.uleb128 0x49
 3577 0164 13       		.uleb128 0x13
 3578 0165 00       		.byte	0
 3579 0166 00       		.byte	0
 3580 0167 1F       		.uleb128 0x1f
 3581 0168 2E       		.uleb128 0x2e
 3582 0169 01       		.byte	0x1
 3583 016a 3F       		.uleb128 0x3f
 3584 016b 19       		.uleb128 0x19
 3585 016c 03       		.uleb128 0x3
 3586 016d 0E       		.uleb128 0xe
 3587 016e 3A       		.uleb128 0x3a
 3588 016f 0B       		.uleb128 0xb
 3589 0170 3B       		.uleb128 0x3b
 3590 0171 0B       		.uleb128 0xb
 3591 0172 27       		.uleb128 0x27
 3592 0173 19       		.uleb128 0x19
 3593 0174 11       		.uleb128 0x11
 3594 0175 01       		.uleb128 0x1
 3595 0176 12       		.uleb128 0x12
 3596 0177 06       		.uleb128 0x6
 3597 0178 40       		.uleb128 0x40
 3598 0179 18       		.uleb128 0x18
 3599 017a 9742     		.uleb128 0x2117
 3600 017c 19       		.uleb128 0x19
 3601 017d 01       		.uleb128 0x1
 3602 017e 13       		.uleb128 0x13
 3603 017f 00       		.byte	0
 3604 0180 00       		.byte	0
 3605 0181 20       		.uleb128 0x20
 3606 0182 898201   		.uleb128 0x4109
 3607 0185 00       		.byte	0
 3608 0186 11       		.uleb128 0x11
 3609 0187 01       		.uleb128 0x1
 3610 0188 31       		.uleb128 0x31
 3611 0189 13       		.uleb128 0x13
 3612 018a 00       		.byte	0
 3613 018b 00       		.byte	0
 3614 018c 21       		.uleb128 0x21
 3615 018d 2E       		.uleb128 0x2e
 3616 018e 01       		.byte	0x1
 3617 018f 3F       		.uleb128 0x3f
 3618 0190 19       		.uleb128 0x19
 3619 0191 03       		.uleb128 0x3
 3620 0192 0E       		.uleb128 0xe
 3621 0193 3A       		.uleb128 0x3a
 3622 0194 0B       		.uleb128 0xb
 3623 0195 3B       		.uleb128 0x3b
 3624 0196 05       		.uleb128 0x5
 3625 0197 27       		.uleb128 0x27
 3626 0198 19       		.uleb128 0x19
 3627 0199 49       		.uleb128 0x49
 3628 019a 13       		.uleb128 0x13
 3629 019b 11       		.uleb128 0x11
 3630 019c 01       		.uleb128 0x1
 3631 019d 12       		.uleb128 0x12
 3632 019e 06       		.uleb128 0x6
ARM GAS  C:\Users\Rafael\AppData\Local\Temp\ccwrXay6.s 			page 92


 3633 019f 40       		.uleb128 0x40
 3634 01a0 18       		.uleb128 0x18
 3635 01a1 9742     		.uleb128 0x2117
 3636 01a3 19       		.uleb128 0x19
 3637 01a4 01       		.uleb128 0x1
 3638 01a5 13       		.uleb128 0x13
 3639 01a6 00       		.byte	0
 3640 01a7 00       		.byte	0
 3641 01a8 22       		.uleb128 0x22
 3642 01a9 34       		.uleb128 0x34
 3643 01aa 00       		.byte	0
 3644 01ab 03       		.uleb128 0x3
 3645 01ac 0E       		.uleb128 0xe
 3646 01ad 3A       		.uleb128 0x3a
 3647 01ae 0B       		.uleb128 0xb
 3648 01af 3B       		.uleb128 0x3b
 3649 01b0 05       		.uleb128 0x5
 3650 01b1 49       		.uleb128 0x49
 3651 01b2 13       		.uleb128 0x13
 3652 01b3 02       		.uleb128 0x2
 3653 01b4 18       		.uleb128 0x18
 3654 01b5 00       		.byte	0
 3655 01b6 00       		.byte	0
 3656 01b7 23       		.uleb128 0x23
 3657 01b8 0B       		.uleb128 0xb
 3658 01b9 01       		.byte	0x1
 3659 01ba 11       		.uleb128 0x11
 3660 01bb 01       		.uleb128 0x1
 3661 01bc 12       		.uleb128 0x12
 3662 01bd 06       		.uleb128 0x6
 3663 01be 01       		.uleb128 0x1
 3664 01bf 13       		.uleb128 0x13
 3665 01c0 00       		.byte	0
 3666 01c1 00       		.byte	0
 3667 01c2 24       		.uleb128 0x24
 3668 01c3 898201   		.uleb128 0x4109
 3669 01c6 01       		.byte	0x1
 3670 01c7 11       		.uleb128 0x11
 3671 01c8 01       		.uleb128 0x1
 3672 01c9 31       		.uleb128 0x31
 3673 01ca 13       		.uleb128 0x13
 3674 01cb 00       		.byte	0
 3675 01cc 00       		.byte	0
 3676 01cd 25       		.uleb128 0x25
 3677 01ce 8A8201   		.uleb128 0x410a
 3678 01d1 00       		.byte	0
 3679 01d2 02       		.uleb128 0x2
 3680 01d3 18       		.uleb128 0x18
 3681 01d4 9142     		.uleb128 0x2111
 3682 01d6 18       		.uleb128 0x18
 3683 01d7 00       		.byte	0
 3684 01d8 00       		.byte	0
 3685 01d9 26       		.uleb128 0x26
 3686 01da 898201   		.uleb128 0x4109
 3687 01dd 01       		.byte	0x1
 3688 01de 11       		.uleb128 0x11
 3689 01df 01       		.uleb128 0x1
ARM GAS  C:\Users\Rafael\AppData\Local\Temp\ccwrXay6.s 			page 93


 3690 01e0 31       		.uleb128 0x31
 3691 01e1 13       		.uleb128 0x13
 3692 01e2 01       		.uleb128 0x1
 3693 01e3 13       		.uleb128 0x13
 3694 01e4 00       		.byte	0
 3695 01e5 00       		.byte	0
 3696 01e6 27       		.uleb128 0x27
 3697 01e7 2E       		.uleb128 0x2e
 3698 01e8 01       		.byte	0x1
 3699 01e9 3F       		.uleb128 0x3f
 3700 01ea 19       		.uleb128 0x19
 3701 01eb 03       		.uleb128 0x3
 3702 01ec 0E       		.uleb128 0xe
 3703 01ed 3A       		.uleb128 0x3a
 3704 01ee 0B       		.uleb128 0xb
 3705 01ef 3B       		.uleb128 0x3b
 3706 01f0 05       		.uleb128 0x5
 3707 01f1 27       		.uleb128 0x27
 3708 01f2 19       		.uleb128 0x19
 3709 01f3 11       		.uleb128 0x11
 3710 01f4 01       		.uleb128 0x1
 3711 01f5 12       		.uleb128 0x12
 3712 01f6 06       		.uleb128 0x6
 3713 01f7 40       		.uleb128 0x40
 3714 01f8 18       		.uleb128 0x18
 3715 01f9 9742     		.uleb128 0x2117
 3716 01fb 19       		.uleb128 0x19
 3717 01fc 01       		.uleb128 0x1
 3718 01fd 13       		.uleb128 0x13
 3719 01fe 00       		.byte	0
 3720 01ff 00       		.byte	0
 3721 0200 28       		.uleb128 0x28
 3722 0201 0B       		.uleb128 0xb
 3723 0202 01       		.byte	0x1
 3724 0203 11       		.uleb128 0x11
 3725 0204 01       		.uleb128 0x1
 3726 0205 12       		.uleb128 0x12
 3727 0206 06       		.uleb128 0x6
 3728 0207 00       		.byte	0
 3729 0208 00       		.byte	0
 3730 0209 29       		.uleb128 0x29
 3731 020a 05       		.uleb128 0x5
 3732 020b 00       		.byte	0
 3733 020c 03       		.uleb128 0x3
 3734 020d 0E       		.uleb128 0xe
 3735 020e 3A       		.uleb128 0x3a
 3736 020f 0B       		.uleb128 0xb
 3737 0210 3B       		.uleb128 0x3b
 3738 0211 05       		.uleb128 0x5
 3739 0212 49       		.uleb128 0x49
 3740 0213 13       		.uleb128 0x13
 3741 0214 02       		.uleb128 0x2
 3742 0215 18       		.uleb128 0x18
 3743 0216 00       		.byte	0
 3744 0217 00       		.byte	0
 3745 0218 2A       		.uleb128 0x2a
 3746 0219 34       		.uleb128 0x34
ARM GAS  C:\Users\Rafael\AppData\Local\Temp\ccwrXay6.s 			page 94


 3747 021a 00       		.byte	0
 3748 021b 03       		.uleb128 0x3
 3749 021c 08       		.uleb128 0x8
 3750 021d 3A       		.uleb128 0x3a
 3751 021e 0B       		.uleb128 0xb
 3752 021f 3B       		.uleb128 0x3b
 3753 0220 05       		.uleb128 0x5
 3754 0221 49       		.uleb128 0x49
 3755 0222 13       		.uleb128 0x13
 3756 0223 00       		.byte	0
 3757 0224 00       		.byte	0
 3758 0225 2B       		.uleb128 0x2b
 3759 0226 34       		.uleb128 0x34
 3760 0227 00       		.byte	0
 3761 0228 03       		.uleb128 0x3
 3762 0229 0E       		.uleb128 0xe
 3763 022a 3A       		.uleb128 0x3a
 3764 022b 0B       		.uleb128 0xb
 3765 022c 3B       		.uleb128 0x3b
 3766 022d 05       		.uleb128 0x5
 3767 022e 49       		.uleb128 0x49
 3768 022f 13       		.uleb128 0x13
 3769 0230 1C       		.uleb128 0x1c
 3770 0231 0B       		.uleb128 0xb
 3771 0232 00       		.byte	0
 3772 0233 00       		.byte	0
 3773 0234 2C       		.uleb128 0x2c
 3774 0235 05       		.uleb128 0x5
 3775 0236 00       		.byte	0
 3776 0237 03       		.uleb128 0x3
 3777 0238 08       		.uleb128 0x8
 3778 0239 3A       		.uleb128 0x3a
 3779 023a 0B       		.uleb128 0xb
 3780 023b 3B       		.uleb128 0x3b
 3781 023c 05       		.uleb128 0x5
 3782 023d 49       		.uleb128 0x49
 3783 023e 13       		.uleb128 0x13
 3784 023f 02       		.uleb128 0x2
 3785 0240 17       		.uleb128 0x17
 3786 0241 00       		.byte	0
 3787 0242 00       		.byte	0
 3788 0243 2D       		.uleb128 0x2d
 3789 0244 05       		.uleb128 0x5
 3790 0245 00       		.byte	0
 3791 0246 03       		.uleb128 0x3
 3792 0247 08       		.uleb128 0x8
 3793 0248 3A       		.uleb128 0x3a
 3794 0249 0B       		.uleb128 0xb
 3795 024a 3B       		.uleb128 0x3b
 3796 024b 05       		.uleb128 0x5
 3797 024c 49       		.uleb128 0x49
 3798 024d 13       		.uleb128 0x13
 3799 024e 02       		.uleb128 0x2
 3800 024f 18       		.uleb128 0x18
 3801 0250 00       		.byte	0
 3802 0251 00       		.byte	0
 3803 0252 2E       		.uleb128 0x2e
ARM GAS  C:\Users\Rafael\AppData\Local\Temp\ccwrXay6.s 			page 95


 3804 0253 34       		.uleb128 0x34
 3805 0254 00       		.byte	0
 3806 0255 03       		.uleb128 0x3
 3807 0256 0E       		.uleb128 0xe
 3808 0257 3A       		.uleb128 0x3a
 3809 0258 0B       		.uleb128 0xb
 3810 0259 3B       		.uleb128 0x3b
 3811 025a 0B       		.uleb128 0xb
 3812 025b 49       		.uleb128 0x49
 3813 025c 13       		.uleb128 0x13
 3814 025d 02       		.uleb128 0x2
 3815 025e 18       		.uleb128 0x18
 3816 025f 00       		.byte	0
 3817 0260 00       		.byte	0
 3818 0261 2F       		.uleb128 0x2f
 3819 0262 34       		.uleb128 0x34
 3820 0263 00       		.byte	0
 3821 0264 03       		.uleb128 0x3
 3822 0265 0E       		.uleb128 0xe
 3823 0266 3A       		.uleb128 0x3a
 3824 0267 0B       		.uleb128 0xb
 3825 0268 3B       		.uleb128 0x3b
 3826 0269 0B       		.uleb128 0xb
 3827 026a 49       		.uleb128 0x49
 3828 026b 13       		.uleb128 0x13
 3829 026c 3F       		.uleb128 0x3f
 3830 026d 19       		.uleb128 0x19
 3831 026e 02       		.uleb128 0x2
 3832 026f 18       		.uleb128 0x18
 3833 0270 00       		.byte	0
 3834 0271 00       		.byte	0
 3835 0272 30       		.uleb128 0x30
 3836 0273 34       		.uleb128 0x34
 3837 0274 00       		.byte	0
 3838 0275 03       		.uleb128 0x3
 3839 0276 0E       		.uleb128 0xe
 3840 0277 3A       		.uleb128 0x3a
 3841 0278 0B       		.uleb128 0xb
 3842 0279 3B       		.uleb128 0x3b
 3843 027a 05       		.uleb128 0x5
 3844 027b 49       		.uleb128 0x49
 3845 027c 13       		.uleb128 0x13
 3846 027d 3F       		.uleb128 0x3f
 3847 027e 19       		.uleb128 0x19
 3848 027f 3C       		.uleb128 0x3c
 3849 0280 19       		.uleb128 0x19
 3850 0281 00       		.byte	0
 3851 0282 00       		.byte	0
 3852 0283 31       		.uleb128 0x31
 3853 0284 34       		.uleb128 0x34
 3854 0285 00       		.byte	0
 3855 0286 03       		.uleb128 0x3
 3856 0287 0E       		.uleb128 0xe
 3857 0288 3A       		.uleb128 0x3a
 3858 0289 0B       		.uleb128 0xb
 3859 028a 3B       		.uleb128 0x3b
 3860 028b 0B       		.uleb128 0xb
ARM GAS  C:\Users\Rafael\AppData\Local\Temp\ccwrXay6.s 			page 96


 3861 028c 49       		.uleb128 0x49
 3862 028d 13       		.uleb128 0x13
 3863 028e 3F       		.uleb128 0x3f
 3864 028f 19       		.uleb128 0x19
 3865 0290 3C       		.uleb128 0x3c
 3866 0291 19       		.uleb128 0x19
 3867 0292 00       		.byte	0
 3868 0293 00       		.byte	0
 3869 0294 32       		.uleb128 0x32
 3870 0295 2E       		.uleb128 0x2e
 3871 0296 00       		.byte	0
 3872 0297 3F       		.uleb128 0x3f
 3873 0298 19       		.uleb128 0x19
 3874 0299 03       		.uleb128 0x3
 3875 029a 0E       		.uleb128 0xe
 3876 029b 3A       		.uleb128 0x3a
 3877 029c 0B       		.uleb128 0xb
 3878 029d 3B       		.uleb128 0x3b
 3879 029e 0B       		.uleb128 0xb
 3880 029f 27       		.uleb128 0x27
 3881 02a0 19       		.uleb128 0x19
 3882 02a1 3C       		.uleb128 0x3c
 3883 02a2 19       		.uleb128 0x19
 3884 02a3 00       		.byte	0
 3885 02a4 00       		.byte	0
 3886 02a5 33       		.uleb128 0x33
 3887 02a6 2E       		.uleb128 0x2e
 3888 02a7 01       		.byte	0x1
 3889 02a8 3F       		.uleb128 0x3f
 3890 02a9 19       		.uleb128 0x19
 3891 02aa 03       		.uleb128 0x3
 3892 02ab 0E       		.uleb128 0xe
 3893 02ac 3A       		.uleb128 0x3a
 3894 02ad 0B       		.uleb128 0xb
 3895 02ae 3B       		.uleb128 0x3b
 3896 02af 05       		.uleb128 0x5
 3897 02b0 27       		.uleb128 0x27
 3898 02b1 19       		.uleb128 0x19
 3899 02b2 49       		.uleb128 0x49
 3900 02b3 13       		.uleb128 0x13
 3901 02b4 3C       		.uleb128 0x3c
 3902 02b5 19       		.uleb128 0x19
 3903 02b6 01       		.uleb128 0x1
 3904 02b7 13       		.uleb128 0x13
 3905 02b8 00       		.byte	0
 3906 02b9 00       		.byte	0
 3907 02ba 34       		.uleb128 0x34
 3908 02bb 2E       		.uleb128 0x2e
 3909 02bc 01       		.byte	0x1
 3910 02bd 3F       		.uleb128 0x3f
 3911 02be 19       		.uleb128 0x19
 3912 02bf 03       		.uleb128 0x3
 3913 02c0 0E       		.uleb128 0xe
 3914 02c1 27       		.uleb128 0x27
 3915 02c2 19       		.uleb128 0x19
 3916 02c3 49       		.uleb128 0x49
 3917 02c4 13       		.uleb128 0x13
ARM GAS  C:\Users\Rafael\AppData\Local\Temp\ccwrXay6.s 			page 97


 3918 02c5 34       		.uleb128 0x34
 3919 02c6 19       		.uleb128 0x19
 3920 02c7 3C       		.uleb128 0x3c
 3921 02c8 19       		.uleb128 0x19
 3922 02c9 01       		.uleb128 0x1
 3923 02ca 13       		.uleb128 0x13
 3924 02cb 00       		.byte	0
 3925 02cc 00       		.byte	0
 3926 02cd 35       		.uleb128 0x35
 3927 02ce 2E       		.uleb128 0x2e
 3928 02cf 00       		.byte	0
 3929 02d0 3F       		.uleb128 0x3f
 3930 02d1 19       		.uleb128 0x19
 3931 02d2 03       		.uleb128 0x3
 3932 02d3 0E       		.uleb128 0xe
 3933 02d4 3A       		.uleb128 0x3a
 3934 02d5 0B       		.uleb128 0xb
 3935 02d6 3B       		.uleb128 0x3b
 3936 02d7 05       		.uleb128 0x5
 3937 02d8 27       		.uleb128 0x27
 3938 02d9 19       		.uleb128 0x19
 3939 02da 3C       		.uleb128 0x3c
 3940 02db 19       		.uleb128 0x19
 3941 02dc 00       		.byte	0
 3942 02dd 00       		.byte	0
 3943 02de 36       		.uleb128 0x36
 3944 02df 2E       		.uleb128 0x2e
 3945 02e0 01       		.byte	0x1
 3946 02e1 3F       		.uleb128 0x3f
 3947 02e2 19       		.uleb128 0x19
 3948 02e3 03       		.uleb128 0x3
 3949 02e4 0E       		.uleb128 0xe
 3950 02e5 3A       		.uleb128 0x3a
 3951 02e6 0B       		.uleb128 0xb
 3952 02e7 3B       		.uleb128 0x3b
 3953 02e8 0B       		.uleb128 0xb
 3954 02e9 27       		.uleb128 0x27
 3955 02ea 19       		.uleb128 0x19
 3956 02eb 49       		.uleb128 0x49
 3957 02ec 13       		.uleb128 0x13
 3958 02ed 3C       		.uleb128 0x3c
 3959 02ee 19       		.uleb128 0x19
 3960 02ef 01       		.uleb128 0x1
 3961 02f0 13       		.uleb128 0x13
 3962 02f1 00       		.byte	0
 3963 02f2 00       		.byte	0
 3964 02f3 00       		.byte	0
 3965              		.section	.debug_loc,"",%progbits
 3966              	.Ldebug_loc0:
 3967              	.LLST0:
 3968 0000 00000000 		.4byte	.LVL0
 3969 0004 5E000000 		.4byte	.LVL20
 3970 0008 0100     		.2byte	0x1
 3971 000a 50       		.byte	0x50
 3972 000b 5E000000 		.4byte	.LVL20
 3973 000f 78000000 		.4byte	.LFE11
 3974 0013 0400     		.2byte	0x4
ARM GAS  C:\Users\Rafael\AppData\Local\Temp\ccwrXay6.s 			page 98


 3975 0015 F3       		.byte	0xf3
 3976 0016 01       		.uleb128 0x1
 3977 0017 50       		.byte	0x50
 3978 0018 9F       		.byte	0x9f
 3979 0019 00000000 		.4byte	0
 3980 001d 00000000 		.4byte	0
 3981              	.LLST1:
 3982 0021 00000000 		.4byte	.LVL0
 3983 0025 18000000 		.4byte	.LVL6
 3984 0029 0100     		.2byte	0x1
 3985 002b 51       		.byte	0x51
 3986 002c 18000000 		.4byte	.LVL6
 3987 0030 78000000 		.4byte	.LFE11
 3988 0034 0400     		.2byte	0x4
 3989 0036 F3       		.byte	0xf3
 3990 0037 01       		.uleb128 0x1
 3991 0038 51       		.byte	0x51
 3992 0039 9F       		.byte	0x9f
 3993 003a 00000000 		.4byte	0
 3994 003e 00000000 		.4byte	0
 3995              	.LLST2:
 3996 0042 46000000 		.4byte	.LVL16
 3997 0046 4A000000 		.4byte	.LVL17
 3998 004a 0100     		.2byte	0x1
 3999 004c 53       		.byte	0x53
 4000 004d 4A000000 		.4byte	.LVL17
 4001 0051 4E000000 		.4byte	.LVL18
 4002 0055 0100     		.2byte	0x1
 4003 0057 52       		.byte	0x52
 4004 0058 50000000 		.4byte	.LVL19
 4005 005c 66000000 		.4byte	.LVL21
 4006 0060 0100     		.2byte	0x1
 4007 0062 52       		.byte	0x52
 4008 0063 68000000 		.4byte	.LVL22
 4009 0067 6C000000 		.4byte	.LVL23
 4010 006b 0100     		.2byte	0x1
 4011 006d 52       		.byte	0x52
 4012 006e 00000000 		.4byte	0
 4013 0072 00000000 		.4byte	0
 4014              	.LLST3:
 4015 0076 02000000 		.4byte	.LVL1
 4016 007a 18000000 		.4byte	.LVL6
 4017 007e 0200     		.2byte	0x2
 4018 0080 30       		.byte	0x30
 4019 0081 9F       		.byte	0x9f
 4020 0082 18000000 		.4byte	.LVL6
 4021 0086 4A000000 		.4byte	.LVL17
 4022 008a 0100     		.2byte	0x1
 4023 008c 55       		.byte	0x55
 4024 008d 00000000 		.4byte	0
 4025 0091 00000000 		.4byte	0
 4026              	.LLST4:
 4027 0095 02000000 		.4byte	.LVL1
 4028 0099 18000000 		.4byte	.LVL6
 4029 009d 0200     		.2byte	0x2
 4030 009f 30       		.byte	0x30
 4031 00a0 9F       		.byte	0x9f
ARM GAS  C:\Users\Rafael\AppData\Local\Temp\ccwrXay6.s 			page 99


 4032 00a1 18000000 		.4byte	.LVL6
 4033 00a5 40000000 		.4byte	.LVL13
 4034 00a9 0100     		.2byte	0x1
 4035 00ab 52       		.byte	0x52
 4036 00ac 42000000 		.4byte	.LVL14
 4037 00b0 6C000000 		.4byte	.LVL23
 4038 00b4 0100     		.2byte	0x1
 4039 00b6 51       		.byte	0x51
 4040 00b7 00000000 		.4byte	0
 4041 00bb 00000000 		.4byte	0
 4042              	.LLST5:
 4043 00bf 02000000 		.4byte	.LVL1
 4044 00c3 18000000 		.4byte	.LVL6
 4045 00c7 0200     		.2byte	0x2
 4046 00c9 30       		.byte	0x30
 4047 00ca 9F       		.byte	0x9f
 4048 00cb 18000000 		.4byte	.LVL6
 4049 00cf 20000000 		.4byte	.LVL8
 4050 00d3 0100     		.2byte	0x1
 4051 00d5 53       		.byte	0x53
 4052 00d6 22000000 		.4byte	.LVL9
 4053 00da 2C000000 		.4byte	.LVL10
 4054 00de 0100     		.2byte	0x1
 4055 00e0 53       		.byte	0x53
 4056 00e1 2E000000 		.4byte	.LVL11
 4057 00e5 44000000 		.4byte	.LVL15
 4058 00e9 0100     		.2byte	0x1
 4059 00eb 53       		.byte	0x53
 4060 00ec 46000000 		.4byte	.LVL16
 4061 00f0 5E000000 		.4byte	.LVL20
 4062 00f4 0100     		.2byte	0x1
 4063 00f6 53       		.byte	0x53
 4064 00f7 00000000 		.4byte	0
 4065 00fb 00000000 		.4byte	0
 4066              	.LLST6:
 4067 00ff 06000000 		.4byte	.LVL2
 4068 0103 0A000000 		.4byte	.LVL3
 4069 0107 0600     		.2byte	0x6
 4070 0109 03       		.byte	0x3
 4071 010a 00000000 		.4byte	cyBle_discoveryData
 4072 010e 9F       		.byte	0x9f
 4073 010f 12000000 		.4byte	.LVL4
 4074 0113 18000000 		.4byte	.LVL6
 4075 0117 0600     		.2byte	0x6
 4076 0119 03       		.byte	0x3
 4077 011a 00000000 		.4byte	cyBle_scanRspData
 4078 011e 9F       		.byte	0x9f
 4079 011f 18000000 		.4byte	.LVL6
 4080 0123 6C000000 		.4byte	.LVL24
 4081 0127 0100     		.2byte	0x1
 4082 0129 54       		.byte	0x54
 4083 012a 00000000 		.4byte	0
 4084 012e 00000000 		.4byte	0
 4085              	.LLST7:
 4086 0132 0A000000 		.4byte	.LVL3
 4087 0136 12000000 		.4byte	.LVL4
 4088 013a 0100     		.2byte	0x1
ARM GAS  C:\Users\Rafael\AppData\Local\Temp\ccwrXay6.s 			page 100


 4089 013c 56       		.byte	0x56
 4090 013d 16000000 		.4byte	.LVL5
 4091 0141 6C000000 		.4byte	.LVL25
 4092 0145 0100     		.2byte	0x1
 4093 0147 56       		.byte	0x56
 4094 0148 00000000 		.4byte	0
 4095 014c 00000000 		.4byte	0
 4096              	.LLST8:
 4097 0150 00000000 		.4byte	.LVL28
 4098 0154 08000000 		.4byte	.LVL30
 4099 0158 0100     		.2byte	0x1
 4100 015a 50       		.byte	0x50
 4101 015b 08000000 		.4byte	.LVL30
 4102 015f 8A000000 		.4byte	.LVL40
 4103 0163 0100     		.2byte	0x1
 4104 0165 54       		.byte	0x54
 4105 0166 8A000000 		.4byte	.LVL40
 4106 016a B0000000 		.4byte	.LFE4
 4107 016e 0400     		.2byte	0x4
 4108 0170 F3       		.byte	0xf3
 4109 0171 01       		.uleb128 0x1
 4110 0172 50       		.byte	0x50
 4111 0173 9F       		.byte	0x9f
 4112 0174 00000000 		.4byte	0
 4113 0178 00000000 		.4byte	0
 4114              	.LLST9:
 4115 017c 06000000 		.4byte	.LVL29
 4116 0180 52000000 		.4byte	.LVL33
 4117 0184 0200     		.2byte	0x2
 4118 0186 30       		.byte	0x30
 4119 0187 9F       		.byte	0x9f
 4120 0188 52000000 		.4byte	.LVL33
 4121 018c 64000000 		.4byte	.LVL34
 4122 0190 0100     		.2byte	0x1
 4123 0192 50       		.byte	0x50
 4124 0193 70000000 		.4byte	.LVL35
 4125 0197 7C000000 		.4byte	.LVL36
 4126 019b 0100     		.2byte	0x1
 4127 019d 50       		.byte	0x50
 4128 019e 84000000 		.4byte	.LVL37
 4129 01a2 86000000 		.4byte	.LVL38
 4130 01a6 0100     		.2byte	0x1
 4131 01a8 50       		.byte	0x50
 4132 01a9 86000000 		.4byte	.LVL38
 4133 01ad 88000000 		.4byte	.LVL39
 4134 01b1 0200     		.2byte	0x2
 4135 01b3 30       		.byte	0x30
 4136 01b4 9F       		.byte	0x9f
 4137 01b5 88000000 		.4byte	.LVL39
 4138 01b9 B0000000 		.4byte	.LFE4
 4139 01bd 0100     		.2byte	0x1
 4140 01bf 50       		.byte	0x50
 4141 01c0 00000000 		.4byte	0
 4142 01c4 00000000 		.4byte	0
 4143              	.LLST10:
 4144 01c8 00000000 		.4byte	.LVL42
 4145 01cc 11000000 		.4byte	.LVL44-1
ARM GAS  C:\Users\Rafael\AppData\Local\Temp\ccwrXay6.s 			page 101


 4146 01d0 0100     		.2byte	0x1
 4147 01d2 50       		.byte	0x50
 4148 01d3 11000000 		.4byte	.LVL44-1
 4149 01d7 26000000 		.4byte	.LVL45
 4150 01db 0400     		.2byte	0x4
 4151 01dd F3       		.byte	0xf3
 4152 01de 01       		.uleb128 0x1
 4153 01df 50       		.byte	0x50
 4154 01e0 9F       		.byte	0x9f
 4155 01e1 26000000 		.4byte	.LVL45
 4156 01e5 28000000 		.4byte	.LVL46
 4157 01e9 0100     		.2byte	0x1
 4158 01eb 50       		.byte	0x50
 4159 01ec 28000000 		.4byte	.LVL46
 4160 01f0 EC000000 		.4byte	.LFE6
 4161 01f4 0400     		.2byte	0x4
 4162 01f6 F3       		.byte	0xf3
 4163 01f7 01       		.uleb128 0x1
 4164 01f8 50       		.byte	0x50
 4165 01f9 9F       		.byte	0x9f
 4166 01fa 00000000 		.4byte	0
 4167 01fe 00000000 		.4byte	0
 4168              	.LLST11:
 4169 0202 06000000 		.4byte	.LVL43
 4170 0206 12000000 		.4byte	.LVL44
 4171 020a 0200     		.2byte	0x2
 4172 020c 30       		.byte	0x30
 4173 020d 9F       		.byte	0x9f
 4174 020e 12000000 		.4byte	.LVL44
 4175 0212 26000000 		.4byte	.LVL45
 4176 0216 0100     		.2byte	0x1
 4177 0218 50       		.byte	0x50
 4178 0219 26000000 		.4byte	.LVL45
 4179 021d 2A000000 		.4byte	.LVL47
 4180 0221 0200     		.2byte	0x2
 4181 0223 30       		.byte	0x30
 4182 0224 9F       		.byte	0x9f
 4183 0225 2A000000 		.4byte	.LVL47
 4184 0229 50000000 		.4byte	.LVL49
 4185 022d 0100     		.2byte	0x1
 4186 022f 50       		.byte	0x50
 4187 0230 58000000 		.4byte	.LVL50
 4188 0234 8A000000 		.4byte	.LVL52
 4189 0238 0100     		.2byte	0x1
 4190 023a 50       		.byte	0x50
 4191 023b 94000000 		.4byte	.LVL53
 4192 023f BA000000 		.4byte	.LVL54
 4193 0243 0100     		.2byte	0x1
 4194 0245 50       		.byte	0x50
 4195 0246 C2000000 		.4byte	.LVL55
 4196 024a EC000000 		.4byte	.LFE6
 4197 024e 0100     		.2byte	0x1
 4198 0250 50       		.byte	0x50
 4199 0251 00000000 		.4byte	0
 4200 0255 00000000 		.4byte	0
 4201              	.LLST12:
 4202 0259 00000000 		.4byte	.LVL57
ARM GAS  C:\Users\Rafael\AppData\Local\Temp\ccwrXay6.s 			page 102


 4203 025d 25000000 		.4byte	.LVL59-1
 4204 0261 0100     		.2byte	0x1
 4205 0263 50       		.byte	0x50
 4206 0264 25000000 		.4byte	.LVL59-1
 4207 0268 62000000 		.4byte	.LVL64
 4208 026c 0100     		.2byte	0x1
 4209 026e 54       		.byte	0x54
 4210 026f 62000000 		.4byte	.LVL64
 4211 0273 64000000 		.4byte	.LVL65
 4212 0277 0100     		.2byte	0x1
 4213 0279 50       		.byte	0x50
 4214 027a 64000000 		.4byte	.LVL65
 4215 027e 70000000 		.4byte	.LFE7
 4216 0282 0400     		.2byte	0x4
 4217 0284 F3       		.byte	0xf3
 4218 0285 01       		.uleb128 0x1
 4219 0286 50       		.byte	0x50
 4220 0287 9F       		.byte	0x9f
 4221 0288 00000000 		.4byte	0
 4222 028c 00000000 		.4byte	0
 4223              	.LLST13:
 4224 0290 04000000 		.4byte	.LVL58
 4225 0294 3E000000 		.4byte	.LVL60
 4226 0298 0200     		.2byte	0x2
 4227 029a 30       		.byte	0x30
 4228 029b 9F       		.byte	0x9f
 4229 029c 3E000000 		.4byte	.LVL60
 4230 02a0 5C000000 		.4byte	.LVL62
 4231 02a4 0100     		.2byte	0x1
 4232 02a6 50       		.byte	0x50
 4233 02a7 60000000 		.4byte	.LVL63
 4234 02ab 62000000 		.4byte	.LVL64
 4235 02af 0100     		.2byte	0x1
 4236 02b1 50       		.byte	0x50
 4237 02b2 62000000 		.4byte	.LVL64
 4238 02b6 64000000 		.4byte	.LVL65
 4239 02ba 0200     		.2byte	0x2
 4240 02bc 30       		.byte	0x30
 4241 02bd 9F       		.byte	0x9f
 4242 02be 64000000 		.4byte	.LVL65
 4243 02c2 70000000 		.4byte	.LFE7
 4244 02c6 0100     		.2byte	0x1
 4245 02c8 50       		.byte	0x50
 4246 02c9 00000000 		.4byte	0
 4247 02cd 00000000 		.4byte	0
 4248              	.LLST14:
 4249 02d1 00000000 		.4byte	.LVL66
 4250 02d5 4E000000 		.4byte	.LVL67
 4251 02d9 0100     		.2byte	0x1
 4252 02db 50       		.byte	0x50
 4253 02dc 4E000000 		.4byte	.LVL67
 4254 02e0 53000000 		.4byte	.LVL68-1
 4255 02e4 0200     		.2byte	0x2
 4256 02e6 73       		.byte	0x73
 4257 02e7 00       		.sleb128 0
 4258 02e8 53000000 		.4byte	.LVL68-1
 4259 02ec 64000000 		.4byte	.LVL69
ARM GAS  C:\Users\Rafael\AppData\Local\Temp\ccwrXay6.s 			page 103


 4260 02f0 0400     		.2byte	0x4
 4261 02f2 F3       		.byte	0xf3
 4262 02f3 01       		.uleb128 0x1
 4263 02f4 50       		.byte	0x50
 4264 02f5 9F       		.byte	0x9f
 4265 02f6 64000000 		.4byte	.LVL69
 4266 02fa 66000000 		.4byte	.LVL70
 4267 02fe 0100     		.2byte	0x1
 4268 0300 50       		.byte	0x50
 4269 0301 66000000 		.4byte	.LVL70
 4270 0305 68000000 		.4byte	.LVL71
 4271 0309 0400     		.2byte	0x4
 4272 030b F3       		.byte	0xf3
 4273 030c 01       		.uleb128 0x1
 4274 030d 50       		.byte	0x50
 4275 030e 9F       		.byte	0x9f
 4276 030f 68000000 		.4byte	.LVL71
 4277 0313 6A000000 		.4byte	.LVL72
 4278 0317 0100     		.2byte	0x1
 4279 0319 50       		.byte	0x50
 4280 031a 6A000000 		.4byte	.LVL72
 4281 031e 6E000000 		.4byte	.LVL73
 4282 0322 0400     		.2byte	0x4
 4283 0324 F3       		.byte	0xf3
 4284 0325 01       		.uleb128 0x1
 4285 0326 50       		.byte	0x50
 4286 0327 9F       		.byte	0x9f
 4287 0328 6E000000 		.4byte	.LVL73
 4288 032c 70000000 		.4byte	.LVL74
 4289 0330 0100     		.2byte	0x1
 4290 0332 50       		.byte	0x50
 4291 0333 70000000 		.4byte	.LVL74
 4292 0337 84000000 		.4byte	.LFE8
 4293 033b 0400     		.2byte	0x4
 4294 033d F3       		.byte	0xf3
 4295 033e 01       		.uleb128 0x1
 4296 033f 50       		.byte	0x50
 4297 0340 9F       		.byte	0x9f
 4298 0341 00000000 		.4byte	0
 4299 0345 00000000 		.4byte	0
 4300              	.LLST15:
 4301 0349 54000000 		.4byte	.LVL68
 4302 034d 64000000 		.4byte	.LVL69
 4303 0351 0100     		.2byte	0x1
 4304 0353 50       		.byte	0x50
 4305 0354 72000000 		.4byte	.LVL75
 4306 0358 84000000 		.4byte	.LFE8
 4307 035c 0100     		.2byte	0x1
 4308 035e 50       		.byte	0x50
 4309 035f 00000000 		.4byte	0
 4310 0363 00000000 		.4byte	0
 4311              	.LLST16:
 4312 0367 00000000 		.4byte	.LVL78
 4313 036b 35000000 		.4byte	.LVL88-1
 4314 036f 0100     		.2byte	0x1
 4315 0371 50       		.byte	0x50
 4316 0372 35000000 		.4byte	.LVL88-1
ARM GAS  C:\Users\Rafael\AppData\Local\Temp\ccwrXay6.s 			page 104


 4317 0376 42000000 		.4byte	.LVL90
 4318 037a 0100     		.2byte	0x1
 4319 037c 54       		.byte	0x54
 4320 037d 42000000 		.4byte	.LVL90
 4321 0381 44000000 		.4byte	.LVL91
 4322 0385 0100     		.2byte	0x1
 4323 0387 50       		.byte	0x50
 4324 0388 44000000 		.4byte	.LVL91
 4325 038c 4C000000 		.4byte	.LFE12
 4326 0390 0400     		.2byte	0x4
 4327 0392 F3       		.byte	0xf3
 4328 0393 01       		.uleb128 0x1
 4329 0394 50       		.byte	0x50
 4330 0395 9F       		.byte	0x9f
 4331 0396 00000000 		.4byte	0
 4332 039a 00000000 		.4byte	0
 4333              	.LLST17:
 4334 039e 02000000 		.4byte	.LVL79
 4335 03a2 44000000 		.4byte	.LVL91
 4336 03a6 0200     		.2byte	0x2
 4337 03a8 30       		.byte	0x30
 4338 03a9 9F       		.byte	0x9f
 4339 03aa 44000000 		.4byte	.LVL91
 4340 03ae 4C000000 		.4byte	.LFE12
 4341 03b2 0100     		.2byte	0x1
 4342 03b4 50       		.byte	0x50
 4343 03b5 00000000 		.4byte	0
 4344 03b9 00000000 		.4byte	0
 4345              	.LLST18:
 4346 03bd 10000000 		.4byte	.LVL81
 4347 03c1 14000000 		.4byte	.LVL82
 4348 03c5 0200     		.2byte	0x2
 4349 03c7 30       		.byte	0x30
 4350 03c8 9F       		.byte	0x9f
 4351 03c9 14000000 		.4byte	.LVL82
 4352 03cd 18000000 		.4byte	.LVL83
 4353 03d1 0100     		.2byte	0x1
 4354 03d3 53       		.byte	0x53
 4355 03d4 1A000000 		.4byte	.LVL84
 4356 03d8 2A000000 		.4byte	.LVL85
 4357 03dc 0100     		.2byte	0x1
 4358 03de 53       		.byte	0x53
 4359 03df 00000000 		.4byte	0
 4360 03e3 00000000 		.4byte	0
 4361              	.LLST19:
 4362 03e7 0C000000 		.4byte	.LVL80
 4363 03eb 30000000 		.4byte	.LVL86
 4364 03ef 0100     		.2byte	0x1
 4365 03f1 54       		.byte	0x54
 4366 03f2 00000000 		.4byte	0
 4367 03f6 00000000 		.4byte	0
 4368              	.LLST20:
 4369 03fa 10000000 		.4byte	.LVL81
 4370 03fe 32000000 		.4byte	.LVL87
 4371 0402 0100     		.2byte	0x1
 4372 0404 51       		.byte	0x51
 4373 0405 00000000 		.4byte	0
ARM GAS  C:\Users\Rafael\AppData\Local\Temp\ccwrXay6.s 			page 105


 4374 0409 00000000 		.4byte	0
 4375              	.LLST21:
 4376 040d 00000000 		.4byte	.LVL92
 4377 0411 2A000000 		.4byte	.LVL100
 4378 0415 0100     		.2byte	0x1
 4379 0417 50       		.byte	0x50
 4380 0418 2A000000 		.4byte	.LVL100
 4381 041c 2C000000 		.4byte	.LVL101
 4382 0420 0400     		.2byte	0x4
 4383 0422 F3       		.byte	0xf3
 4384 0423 01       		.uleb128 0x1
 4385 0424 50       		.byte	0x50
 4386 0425 9F       		.byte	0x9f
 4387 0426 2C000000 		.4byte	.LVL101
 4388 042a 2E000000 		.4byte	.LVL102
 4389 042e 0100     		.2byte	0x1
 4390 0430 50       		.byte	0x50
 4391 0431 2E000000 		.4byte	.LVL102
 4392 0435 34000000 		.4byte	.LFE13
 4393 0439 0400     		.2byte	0x4
 4394 043b F3       		.byte	0xf3
 4395 043c 01       		.uleb128 0x1
 4396 043d 50       		.byte	0x50
 4397 043e 9F       		.byte	0x9f
 4398 043f 00000000 		.4byte	0
 4399 0443 00000000 		.4byte	0
 4400              	.LLST22:
 4401 0447 02000000 		.4byte	.LVL93
 4402 044b 2E000000 		.4byte	.LVL102
 4403 044f 0200     		.2byte	0x2
 4404 0451 30       		.byte	0x30
 4405 0452 9F       		.byte	0x9f
 4406 0453 2E000000 		.4byte	.LVL102
 4407 0457 34000000 		.4byte	.LFE13
 4408 045b 0100     		.2byte	0x1
 4409 045d 50       		.byte	0x50
 4410 045e 00000000 		.4byte	0
 4411 0462 00000000 		.4byte	0
 4412              	.LLST23:
 4413 0466 0E000000 		.4byte	.LVL95
 4414 046a 2C000000 		.4byte	.LVL101
 4415 046e 0100     		.2byte	0x1
 4416 0470 51       		.byte	0x51
 4417 0471 00000000 		.4byte	0
 4418 0475 00000000 		.4byte	0
 4419              	.LLST24:
 4420 0479 0E000000 		.4byte	.LVL95
 4421 047d 12000000 		.4byte	.LVL96
 4422 0481 0200     		.2byte	0x2
 4423 0483 30       		.byte	0x30
 4424 0484 9F       		.byte	0x9f
 4425 0485 12000000 		.4byte	.LVL96
 4426 0489 16000000 		.4byte	.LVL97
 4427 048d 0100     		.2byte	0x1
 4428 048f 53       		.byte	0x53
 4429 0490 18000000 		.4byte	.LVL98
 4430 0494 24000000 		.4byte	.LVL99
ARM GAS  C:\Users\Rafael\AppData\Local\Temp\ccwrXay6.s 			page 106


 4431 0498 0100     		.2byte	0x1
 4432 049a 53       		.byte	0x53
 4433 049b 00000000 		.4byte	0
 4434 049f 00000000 		.4byte	0
 4435              	.LLST25:
 4436 04a3 0C000000 		.4byte	.LVL94
 4437 04a7 2C000000 		.4byte	.LVL101
 4438 04ab 0100     		.2byte	0x1
 4439 04ad 54       		.byte	0x54
 4440 04ae 00000000 		.4byte	0
 4441 04b2 00000000 		.4byte	0
 4442              	.LLST26:
 4443 04b6 00000000 		.4byte	.LVL103
 4444 04ba 04000000 		.4byte	.LVL104
 4445 04be 0100     		.2byte	0x1
 4446 04c0 50       		.byte	0x50
 4447 04c1 04000000 		.4byte	.LVL104
 4448 04c5 0A000000 		.4byte	.LFE14
 4449 04c9 0400     		.2byte	0x4
 4450 04cb F3       		.byte	0xf3
 4451 04cc 01       		.uleb128 0x1
 4452 04cd 50       		.byte	0x50
 4453 04ce 9F       		.byte	0x9f
 4454 04cf 00000000 		.4byte	0
 4455 04d3 00000000 		.4byte	0
 4456              	.LLST27:
 4457 04d7 00000000 		.4byte	.LVL105
 4458 04db 04000000 		.4byte	.LVL106
 4459 04df 0100     		.2byte	0x1
 4460 04e1 51       		.byte	0x51
 4461 04e2 04000000 		.4byte	.LVL106
 4462 04e6 08000000 		.4byte	.LFE15
 4463 04ea 0400     		.2byte	0x4
 4464 04ec F3       		.byte	0xf3
 4465 04ed 01       		.uleb128 0x1
 4466 04ee 51       		.byte	0x51
 4467 04ef 9F       		.byte	0x9f
 4468 04f0 00000000 		.4byte	0
 4469 04f4 00000000 		.4byte	0
 4470              		.section	.debug_aranges,"",%progbits
 4471 0000 84000000 		.4byte	0x84
 4472 0004 0200     		.2byte	0x2
 4473 0006 00000000 		.4byte	.Ldebug_info0
 4474 000a 04       		.byte	0x4
 4475 000b 00       		.byte	0
 4476 000c 0000     		.2byte	0
 4477 000e 0000     		.2byte	0
 4478 0010 00000000 		.4byte	.LFB11
 4479 0014 78000000 		.4byte	.LFE11-.LFB11
 4480 0018 00000000 		.4byte	.LFB3
 4481 001c 08000000 		.4byte	.LFE3-.LFB3
 4482 0020 00000000 		.4byte	.LFB2
 4483 0024 34000000 		.4byte	.LFE2-.LFB2
 4484 0028 00000000 		.4byte	.LFB4
 4485 002c B0000000 		.4byte	.LFE4-.LFB4
 4486 0030 00000000 		.4byte	.LFB5
 4487 0034 14000000 		.4byte	.LFE5-.LFB5
ARM GAS  C:\Users\Rafael\AppData\Local\Temp\ccwrXay6.s 			page 107


 4488 0038 00000000 		.4byte	.LFB6
 4489 003c EC000000 		.4byte	.LFE6-.LFB6
 4490 0040 00000000 		.4byte	.LFB7
 4491 0044 70000000 		.4byte	.LFE7-.LFB7
 4492 0048 00000000 		.4byte	.LFB8
 4493 004c 84000000 		.4byte	.LFE8-.LFB8
 4494 0050 00000000 		.4byte	.LFB9
 4495 0054 18000000 		.4byte	.LFE9-.LFB9
 4496 0058 00000000 		.4byte	.LFB10
 4497 005c 02000000 		.4byte	.LFE10-.LFB10
 4498 0060 00000000 		.4byte	.LFB12
 4499 0064 4C000000 		.4byte	.LFE12-.LFB12
 4500 0068 00000000 		.4byte	.LFB13
 4501 006c 34000000 		.4byte	.LFE13-.LFB13
 4502 0070 00000000 		.4byte	.LFB14
 4503 0074 0A000000 		.4byte	.LFE14-.LFB14
 4504 0078 00000000 		.4byte	.LFB15
 4505 007c 08000000 		.4byte	.LFE15-.LFB15
 4506 0080 00000000 		.4byte	0
 4507 0084 00000000 		.4byte	0
 4508              		.section	.debug_ranges,"",%progbits
 4509              	.Ldebug_ranges0:
 4510 0000 00000000 		.4byte	.LFB11
 4511 0004 78000000 		.4byte	.LFE11
 4512 0008 00000000 		.4byte	.LFB3
 4513 000c 08000000 		.4byte	.LFE3
 4514 0010 00000000 		.4byte	.LFB2
 4515 0014 34000000 		.4byte	.LFE2
 4516 0018 00000000 		.4byte	.LFB4
 4517 001c B0000000 		.4byte	.LFE4
 4518 0020 00000000 		.4byte	.LFB5
 4519 0024 14000000 		.4byte	.LFE5
 4520 0028 00000000 		.4byte	.LFB6
 4521 002c EC000000 		.4byte	.LFE6
 4522 0030 00000000 		.4byte	.LFB7
 4523 0034 70000000 		.4byte	.LFE7
 4524 0038 00000000 		.4byte	.LFB8
 4525 003c 84000000 		.4byte	.LFE8
 4526 0040 00000000 		.4byte	.LFB9
 4527 0044 18000000 		.4byte	.LFE9
 4528 0048 00000000 		.4byte	.LFB10
 4529 004c 02000000 		.4byte	.LFE10
 4530 0050 00000000 		.4byte	.LFB12
 4531 0054 4C000000 		.4byte	.LFE12
 4532 0058 00000000 		.4byte	.LFB13
 4533 005c 34000000 		.4byte	.LFE13
 4534 0060 00000000 		.4byte	.LFB14
 4535 0064 0A000000 		.4byte	.LFE14
 4536 0068 00000000 		.4byte	.LFB15
 4537 006c 08000000 		.4byte	.LFE15
 4538 0070 00000000 		.4byte	0
 4539 0074 00000000 		.4byte	0
 4540              		.section	.debug_line,"",%progbits
 4541              	.Ldebug_line0:
 4542 0000 F1030000 		.section	.debug_str,"MS",%progbits,1
 4542      0200E901 
 4542      00000201 
ARM GAS  C:\Users\Rafael\AppData\Local\Temp\ccwrXay6.s 			page 108


 4542      FB0E0D00 
 4542      01010101 
 4543              	.LASF235:
 4544 0000 6379426C 		.ascii	"cyBle_peerBonding\000"
 4544      655F7065 
 4544      6572426F 
 4544      6E64696E 
 4544      6700
 4545              	.LASF152:
 4546 0012 7363616E 		.ascii	"scanRspData\000"
 4546      52737044 
 4546      61746100 
 4547              	.LASF16:
 4548 001e 73697A65 		.ascii	"size_t\000"
 4548      5F7400
 4549              	.LASF17:
 4550 0025 73697A65 		.ascii	"sizetype\000"
 4550      74797065 
 4550      00
 4551              	.LASF39:
 4552 002e 4359424C 		.ascii	"CYBLE_EVT_GAP_NUMERIC_COMPARISON_REQUEST\000"
 4552      455F4556 
 4552      545F4741 
 4552      505F4E55 
 4552      4D455249 
 4553              	.LASF199:
 4554 0057 61706952 		.ascii	"apiResult\000"
 4554      6573756C 
 4554      7400
 4555              	.LASF33:
 4556 0061 4359424C 		.ascii	"CYBLE_EVT_GAP_DEVICE_CONNECTED\000"
 4556      455F4556 
 4556      545F4741 
 4556      505F4445 
 4556      56494345 
 4557              	.LASF47:
 4558 0080 4359424C 		.ascii	"CYBLE_EVT_GATT_CONNECT_IND\000"
 4558      455F4556 
 4558      545F4741 
 4558      54545F43 
 4558      4F4E4E45 
 4559              	.LASF258:
 4560 009b 4379426C 		.ascii	"CyBle_ChangeAdLocalName\000"
 4560      655F4368 
 4560      616E6765 
 4560      41644C6F 
 4560      63616C4E 
 4561              	.LASF11:
 4562 00b3 75696E74 		.ascii	"uint32\000"
 4562      333200
 4563              	.LASF194:
 4564 00ba 64657374 		.ascii	"destBuffer\000"
 4564      42756666 
 4564      657200
 4565              	.LASF155:
 4566 00c5 64697363 		.ascii	"discMode\000"
 4566      4D6F6465 
ARM GAS  C:\Users\Rafael\AppData\Local\Temp\ccwrXay6.s 			page 109


 4566      00
 4567              	.LASF101:
 4568 00ce 4359424C 		.ascii	"CYBLE_ERROR_L2CAP_CONNECTION_ENTITY_NOT_FOUND\000"
 4568      455F4552 
 4568      524F525F 
 4568      4C324341 
 4568      505F434F 
 4569              	.LASF107:
 4570 00fc 4359424C 		.ascii	"CYBLE_ERROR_MIC_AUTH_FAILED\000"
 4570      455F4552 
 4570      524F525F 
 4570      4D49435F 
 4570      41555448 
 4571              	.LASF251:
 4572 0118 4379426C 		.ascii	"CyBle_GapGetPeerBdHandle\000"
 4572      655F4761 
 4572      70476574 
 4572      50656572 
 4572      42644861 
 4573              	.LASF14:
 4574 0131 63686172 		.ascii	"char8\000"
 4574      3800
 4575              	.LASF79:
 4576 0137 4359424C 		.ascii	"CYBLE_EVT_L2CAP_CBFC_RX_CREDIT_IND\000"
 4576      455F4556 
 4576      545F4C32 
 4576      4341505F 
 4576      43424643 
 4577              	.LASF211:
 4578 015a 62446576 		.ascii	"bDevHandle\000"
 4578      48616E64 
 4578      6C6500
 4579              	.LASF173:
 4580 0165 7065726D 		.ascii	"permission\000"
 4580      69737369 
 4580      6F6E00
 4581              	.LASF119:
 4582 0170 74797065 		.ascii	"type\000"
 4582      00
 4583              	.LASF177:
 4584 0175 4359424C 		.ascii	"CYBLE_CALLBACK_T\000"
 4584      455F4341 
 4584      4C4C4241 
 4584      434B5F54 
 4584      00
 4585              	.LASF64:
 4586 0186 4359424C 		.ascii	"CYBLE_EVT_GATTC_HANDLE_VALUE_NTF\000"
 4586      455F4556 
 4586      545F4741 
 4586      5454435F 
 4586      48414E44 
 4587              	.LASF27:
 4588 01a7 4359424C 		.ascii	"CYBLE_EVT_GAP_AUTH_REQ\000"
 4588      455F4556 
 4588      545F4741 
 4588      505F4155 
 4588      54485F52 
ARM GAS  C:\Users\Rafael\AppData\Local\Temp\ccwrXay6.s 			page 110


 4589              	.LASF161:
 4590 01be 4359424C 		.ascii	"CYBLE_CONN_HANDLE_T\000"
 4590      455F434F 
 4590      4E4E5F48 
 4590      414E444C 
 4590      455F5400 
 4591              	.LASF198:
 4592 01d2 63616C6C 		.ascii	"callbackFunc\000"
 4592      6261636B 
 4592      46756E63 
 4592      00
 4593              	.LASF96:
 4594 01df 4359424C 		.ascii	"CYBLE_ERROR_BT_ON_NOT_COMPLETED\000"
 4594      455F4552 
 4594      524F525F 
 4594      42545F4F 
 4594      4E5F4E4F 
 4595              	.LASF186:
 4596 01ff 4359424C 		.ascii	"CYBLE_STATE_ADVERTISING\000"
 4596      455F5354 
 4596      4154455F 
 4596      41445645 
 4596      52544953 
 4597              	.LASF41:
 4598 0217 4359424C 		.ascii	"CYBLE_EVT_GAP_OOB_GENERATED_NOTIFICATION\000"
 4598      455F4556 
 4598      545F4741 
 4598      505F4F4F 
 4598      425F4745 
 4599              	.LASF159:
 4600 0240 62644861 		.ascii	"bdHandle\000"
 4600      6E646C65 
 4600      00
 4601              	.LASF257:
 4602 0249 433A5C55 		.ascii	"C:\\Users\\Rafael\\Documents\\PSoC Creator\\Workspa"
 4602      73657273 
 4602      5C526166 
 4602      61656C5C 
 4602      446F6375 
 4603 0277 63653031 		.ascii	"ce01\\MicroFluidics.cydsn\000"
 4603      5C4D6963 
 4603      726F466C 
 4603      75696469 
 4603      63732E63 
 4604              	.LASF127:
 4605 0290 4359424C 		.ascii	"CYBLE_DLE_CONFIG_PARAM_T\000"
 4605      455F444C 
 4605      455F434F 
 4605      4E464947 
 4605      5F504152 
 4606              	.LASF60:
 4607 02a9 4359424C 		.ascii	"CYBLE_EVT_GATTS_WRITE_CMD_REQ\000"
 4607      455F4556 
 4607      545F4741 
 4607      5454535F 
 4607      57524954 
 4608              	.LASF4:
ARM GAS  C:\Users\Rafael\AppData\Local\Temp\ccwrXay6.s 			page 111


 4609 02c7 6C6F6E67 		.ascii	"long int\000"
 4609      20696E74 
 4609      00
 4610              	.LASF196:
 4611 02d0 4379426C 		.ascii	"CyBle_ServiceInit\000"
 4611      655F5365 
 4611      72766963 
 4611      65496E69 
 4611      7400
 4612              	.LASF214:
 4613 02e2 61647665 		.ascii	"advertisingIntervalType\000"
 4613      72746973 
 4613      696E6749 
 4613      6E746572 
 4613      76616C54 
 4614              	.LASF123:
 4615 02fa 4359424C 		.ascii	"CYBLE_STK_APP_DATA_BUFF_T\000"
 4615      455F5354 
 4615      4B5F4150 
 4615      505F4441 
 4615      54415F42 
 4616              	.LASF130:
 4617 0314 646C6543 		.ascii	"dleConfig\000"
 4617      6F6E6669 
 4617      6700
 4618              	.LASF249:
 4619 031e 4379426C 		.ascii	"CyBle_StoreStackData\000"
 4619      655F5374 
 4619      6F726553 
 4619      7461636B 
 4619      44617461 
 4620              	.LASF203:
 4621 0333 73746163 		.ascii	"stackConfig\000"
 4621      6B436F6E 
 4621      66696700 
 4622              	.LASF20:
 4623 033f 4359424C 		.ascii	"CYBLE_EVT_STACK_ON\000"
 4623      455F4556 
 4623      545F5354 
 4623      41434B5F 
 4623      4F4E00
 4624              	.LASF103:
 4625 0352 4359424C 		.ascii	"CYBLE_ERROR_L2CAP_PSM_NOT_IN_RANGE\000"
 4625      455F4552 
 4625      524F525F 
 4625      4C324341 
 4625      505F5053 
 4626              	.LASF230:
 4627 0375 6379426C 		.ascii	"cyBle_discoveryParam\000"
 4627      655F6469 
 4627      73636F76 
 4627      65727950 
 4627      6172616D 
 4628              	.LASF248:
 4629 038a 4379426C 		.ascii	"CyBle_StoreAppData\000"
 4629      655F5374 
 4629      6F726541 
ARM GAS  C:\Users\Rafael\AppData\Local\Temp\ccwrXay6.s 			page 112


 4629      70704461 
 4629      746100
 4630              	.LASF228:
 4631 039d 6379426C 		.ascii	"cyBle_deviceAddress\000"
 4631      655F6465 
 4631      76696365 
 4631      41646472 
 4631      65737300 
 4632              	.LASF115:
 4633 03b1 4359424C 		.ascii	"CYBLE_ERROR_CHAR_IS_NOT_DISCOVERED\000"
 4633      455F4552 
 4633      524F525F 
 4633      43484152 
 4633      5F49535F 
 4634              	.LASF172:
 4635 03d4 61747454 		.ascii	"attType\000"
 4635      79706500 
 4636              	.LASF137:
 4637 03dc 4359424C 		.ascii	"CYBLE_GAPP_NON_CONNECTABLE_UNDIRECTED_ADV\000"
 4637      455F4741 
 4637      50505F4E 
 4637      4F4E5F43 
 4637      4F4E4E45 
 4638              	.LASF73:
 4639 0406 4359424C 		.ascii	"CYBLE_EVT_L2CAP_COMMAND_REJ\000"
 4639      455F4556 
 4639      545F4C32 
 4639      4341505F 
 4639      434F4D4D 
 4640              	.LASF104:
 4641 0422 4359424C 		.ascii	"CYBLE_ERROR_GATT_DB_INVALID_ATTR_HANDLE\000"
 4641      455F4552 
 4641      524F525F 
 4641      47415454 
 4641      5F44425F 
 4642              	.LASF0:
 4643 044a 7369676E 		.ascii	"signed char\000"
 4643      65642063 
 4643      68617200 
 4644              	.LASF210:
 4645 0456 4379426C 		.ascii	"CyBle_GapRemoveBondedDevice\000"
 4645      655F4761 
 4645      7052656D 
 4645      6F766542 
 4645      6F6E6465 
 4646              	.LASF122:
 4647 0472 62756666 		.ascii	"bufferUnits\000"
 4647      6572556E 
 4647      69747300 
 4648              	.LASF22:
 4649 047e 4359424C 		.ascii	"CYBLE_EVT_HARDWARE_ERROR\000"
 4649      455F4556 
 4649      545F4841 
 4649      52445741 
 4649      52455F45 
 4650              	.LASF85:
 4651 0497 4359424C 		.ascii	"CYBLE_ERROR_OK\000"
ARM GAS  C:\Users\Rafael\AppData\Local\Temp\ccwrXay6.s 			page 113


 4651      455F4552 
 4651      524F525F 
 4651      4F4B00
 4652              	.LASF51:
 4653 04a6 4359424C 		.ascii	"CYBLE_EVT_GATTC_READ_BY_GROUP_TYPE_RSP\000"
 4653      455F4556 
 4653      545F4741 
 4653      5454435F 
 4653      52454144 
 4654              	.LASF183:
 4655 04cd 4359424C 		.ascii	"CYBLE_STATE_STOPPED\000"
 4655      455F5354 
 4655      4154455F 
 4655      53544F50 
 4655      50454400 
 4656              	.LASF1:
 4657 04e1 756E7369 		.ascii	"unsigned char\000"
 4657      676E6564 
 4657      20636861 
 4657      7200
 4658              	.LASF50:
 4659 04ef 4359424C 		.ascii	"CYBLE_EVT_GATTC_XCHNG_MTU_RSP\000"
 4659      455F4556 
 4659      545F4741 
 4659      5454435F 
 4659      5843484E 
 4660              	.LASF45:
 4661 050d 4359424C 		.ascii	"CYBLE_EVT_GAP_SMP_NEGOTIATED_AUTH_INFO\000"
 4661      455F4556 
 4661      545F4741 
 4661      505F534D 
 4661      505F4E45 
 4662              	.LASF80:
 4663 0534 4359424C 		.ascii	"CYBLE_EVT_L2CAP_CBFC_TX_CREDIT_IND\000"
 4663      455F4556 
 4663      545F4C32 
 4663      4341505F 
 4663      43424643 
 4664              	.LASF140:
 4665 0557 61647649 		.ascii	"advIntvMin\000"
 4665      6E74764D 
 4665      696E00
 4666              	.LASF171:
 4667 0562 61747448 		.ascii	"attHandle\000"
 4667      616E646C 
 4667      6500
 4668              	.LASF213:
 4669 056c 4379426C 		.ascii	"CyBle_GappStartAdvertisement\000"
 4669      655F4761 
 4669      70705374 
 4669      61727441 
 4669      64766572 
 4670              	.LASF151:
 4671 0589 4359424C 		.ascii	"CYBLE_GAPP_DISC_DATA_T\000"
 4671      455F4741 
 4671      50505F44 
 4671      4953435F 
ARM GAS  C:\Users\Rafael\AppData\Local\Temp\ccwrXay6.s 			page 114


 4671      44415441 
 4672              	.LASF77:
 4673 05a0 4359424C 		.ascii	"CYBLE_EVT_L2CAP_CBFC_DISCONN_CNF\000"
 4673      455F4556 
 4673      545F4C32 
 4673      4341505F 
 4673      43424643 
 4674              	.LASF54:
 4675 05c1 4359424C 		.ascii	"CYBLE_EVT_GATTC_FIND_BY_TYPE_VALUE_RSP\000"
 4675      455F4556 
 4675      545F4741 
 4675      5454435F 
 4675      46494E44 
 4676              	.LASF42:
 4677 05e8 4359424C 		.ascii	"CYBLE_EVT_GAP_DATA_LENGTH_CHANGE\000"
 4677      455F4556 
 4677      545F4741 
 4677      505F4441 
 4677      54415F4C 
 4678              	.LASF15:
 4679 0609 63686172 		.ascii	"char\000"
 4679      00
 4680              	.LASF244:
 4681 060e 4379426C 		.ascii	"CyBle_StackInit\000"
 4681      655F5374 
 4681      61636B49 
 4681      6E697400 
 4682              	.LASF165:
 4683 061e 6D617841 		.ascii	"maxAttrLength\000"
 4683      7474724C 
 4683      656E6774 
 4683      6800
 4684              	.LASF57:
 4685 062c 4359424C 		.ascii	"CYBLE_EVT_GATTC_READ_MULTI_RSP\000"
 4685      455F4556 
 4685      545F4741 
 4685      5454435F 
 4685      52454144 
 4686              	.LASF19:
 4687 064b 4359424C 		.ascii	"CYBLE_EVT_HOST_INVALID\000"
 4687      455F4556 
 4687      545F484F 
 4687      53545F49 
 4687      4E56414C 
 4688              	.LASF254:
 4689 0662 4379426C 		.ascii	"CyBle_GappExitDiscoveryMode\000"
 4689      655F4761 
 4689      70704578 
 4689      69744469 
 4689      73636F76 
 4690              	.LASF219:
 4691 067e 4379426C 		.ascii	"CyBle_GapGetLocalName\000"
 4691      655F4761 
 4691      70476574 
 4691      4C6F6361 
 4691      6C4E616D 
 4692              	.LASF44:
ARM GAS  C:\Users\Rafael\AppData\Local\Temp\ccwrXay6.s 			page 115


 4693 0694 4359424C 		.ascii	"CYBLE_EVT_GAPC_DIRECT_ADV_REPORT\000"
 4693      455F4556 
 4693      545F4741 
 4693      50435F44 
 4693      49524543 
 4694              	.LASF92:
 4695 06b5 4359424C 		.ascii	"CYBLE_ERROR_NO_DEVICE_ENTITY\000"
 4695      455F4552 
 4695      524F525F 
 4695      4E4F5F44 
 4695      45564943 
 4696              	.LASF56:
 4697 06d2 4359424C 		.ascii	"CYBLE_EVT_GATTC_READ_BLOB_RSP\000"
 4697      455F4556 
 4697      545F4741 
 4697      5454435F 
 4697      52454144 
 4698              	.LASF63:
 4699 06f0 4359424C 		.ascii	"CYBLE_EVT_GATTC_EXEC_WRITE_RSP\000"
 4699      455F4556 
 4699      545F4741 
 4699      5454435F 
 4699      45584543 
 4700              	.LASF197:
 4701 070f 4379426C 		.ascii	"CyBle_Init\000"
 4701      655F496E 
 4701      697400
 4702              	.LASF68:
 4703 071a 4359424C 		.ascii	"CYBLE_EVT_GATTC_STOP_CMD_COMPLETE\000"
 4703      455F4556 
 4703      545F4741 
 4703      5454435F 
 4703      53544F50 
 4704              	.LASF176:
 4705 073c 4359424C 		.ascii	"CYBLE_GATTS_DB_T\000"
 4705      455F4741 
 4705      5454535F 
 4705      44425F54 
 4705      00
 4706              	.LASF223:
 4707 074d 6379426C 		.ascii	"cyBle_pendingFlashClearCccdHandle\000"
 4707      655F7065 
 4707      6E64696E 
 4707      67466C61 
 4707      7368436C 
 4708              	.LASF215:
 4709 076f 4379426C 		.ascii	"CyBle_GappStopAdvertisement\000"
 4709      655F4761 
 4709      70705374 
 4709      6F704164 
 4709      76657274 
 4710              	.LASF247:
 4711 078b 4379426C 		.ascii	"CyBle_Shutdown\000"
 4711      655F5368 
 4711      7574646F 
 4711      776E00
 4712              	.LASF111:
ARM GAS  C:\Users\Rafael\AppData\Local\Temp\ccwrXay6.s 			page 116


 4713 079a 4359424C 		.ascii	"CYBLE_ERROR_CONTROLLER_BUSY\000"
 4713      455F4552 
 4713      524F525F 
 4713      434F4E54 
 4713      524F4C4C 
 4714              	.LASF86:
 4715 07b6 4359424C 		.ascii	"CYBLE_ERROR_INVALID_PARAMETER\000"
 4715      455F4552 
 4715      524F525F 
 4715      494E5641 
 4715      4C49445F 
 4716              	.LASF200:
 4717 07d4 6379426C 		.ascii	"cyBle_stackDataBuff\000"
 4717      655F7374 
 4717      61636B44 
 4717      61746142 
 4717      75666600 
 4718              	.LASF181:
 4719 07e8 626F756E 		.ascii	"boundedDevCount\000"
 4719      64656444 
 4719      6576436F 
 4719      756E7400 
 4720              	.LASF204:
 4721 07f8 66656174 		.ascii	"featureHeapReq\000"
 4721      75726548 
 4721      65617052 
 4721      657100
 4722              	.LASF138:
 4723 0807 4359424C 		.ascii	"CYBLE_GAPP_CONNECTABLE_LOW_DC_DIRECTED_ADV\000"
 4723      455F4741 
 4723      50505F43 
 4723      4F4E4E45 
 4723      43544142 
 4724              	.LASF88:
 4725 0832 4359424C 		.ascii	"CYBLE_ERROR_MEMORY_ALLOCATION_FAILED\000"
 4725      455F4552 
 4725      524F525F 
 4725      4D454D4F 
 4725      52595F41 
 4726              	.LASF229:
 4727 0857 6379426C 		.ascii	"cyBle_sflashDeviceAddress\000"
 4727      655F7366 
 4727      6C617368 
 4727      44657669 
 4727      63654164 
 4728              	.LASF179:
 4729 0871 61747456 		.ascii	"attValuesCCCDFlashMemory\000"
 4729      616C7565 
 4729      73434343 
 4729      44466C61 
 4729      73684D65 
 4730              	.LASF112:
 4731 088a 4359424C 		.ascii	"CYBLE_ERROR_MAX\000"
 4731      455F4552 
 4731      524F525F 
 4731      4D415800 
 4732              	.LASF72:
ARM GAS  C:\Users\Rafael\AppData\Local\Temp\ccwrXay6.s 			page 117


 4733 089a 4359424C 		.ascii	"CYBLE_EVT_L2CAP_CONN_PARAM_UPDATE_RSP\000"
 4733      455F4556 
 4733      545F4C32 
 4733      4341505F 
 4733      434F4E4E 
 4734              	.LASF178:
 4735 08c0 73746163 		.ascii	"stackFlashptr\000"
 4735      6B466C61 
 4735      73687074 
 4735      7200
 4736              	.LASF148:
 4737 08ce 4359424C 		.ascii	"CYBLE_GAPP_DISC_PARAM_T\000"
 4737      455F4741 
 4737      50505F44 
 4737      4953435F 
 4737      50415241 
 4738              	.LASF195:
 4739 08e6 6D61784C 		.ascii	"maxLength\000"
 4739      656E6774 
 4739      6800
 4740              	.LASF30:
 4741 08f0 4359424C 		.ascii	"CYBLE_EVT_GAP_AUTH_COMPLETE\000"
 4741      455F4556 
 4741      545F4741 
 4741      505F4155 
 4741      54485F43 
 4742              	.LASF147:
 4743 090c 61647646 		.ascii	"advFilterPolicy\000"
 4743      696C7465 
 4743      72506F6C 
 4743      69637900 
 4744              	.LASF31:
 4745 091c 4359424C 		.ascii	"CYBLE_EVT_GAP_AUTH_FAILED\000"
 4745      455F4556 
 4745      545F4741 
 4745      505F4155 
 4745      54485F46 
 4746              	.LASF256:
 4747 0936 2E5C4765 		.ascii	".\\Generated_Source\\PSoC4\\BLE_1.c\000"
 4747      6E657261 
 4747      7465645F 
 4747      536F7572 
 4747      63655C50 
 4748              	.LASF121:
 4749 0957 62756666 		.ascii	"bufferSize\000"
 4749      65725369 
 4749      7A6500
 4750              	.LASF243:
 4751 0962 4379426C 		.ascii	"CyBle_StackSetFeatureConfig\000"
 4751      655F5374 
 4751      61636B53 
 4751      65744665 
 4751      61747572 
 4752              	.LASF142:
 4753 097e 61647654 		.ascii	"advType\000"
 4753      79706500 
 4754              	.LASF89:
ARM GAS  C:\Users\Rafael\AppData\Local\Temp\ccwrXay6.s 			page 118


 4755 0986 4359424C 		.ascii	"CYBLE_ERROR_INSUFFICIENT_RESOURCES\000"
 4755      455F4552 
 4755      524F525F 
 4755      494E5355 
 4755      46464943 
 4756              	.LASF5:
 4757 09a9 6C6F6E67 		.ascii	"long unsigned int\000"
 4757      20756E73 
 4757      69676E65 
 4757      6420696E 
 4757      7400
 4758              	.LASF109:
 4759 09bb 4359424C 		.ascii	"CYBLE_ERROR_UNSUPPORTED_FEATURE_OR_PARAMETER_VALUE\000"
 4759      455F4552 
 4759      524F525F 
 4759      554E5355 
 4759      50504F52 
 4760              	.LASF182:
 4761 09ee 43595F42 		.ascii	"CY_BLE_FLASH_STORAGE\000"
 4761      4C455F46 
 4761      4C415348 
 4761      5F53544F 
 4761      52414745 
 4762              	.LASF128:
 4763 0a03 7265736F 		.ascii	"resolvingListSize\000"
 4763      6C76696E 
 4763      674C6973 
 4763      7453697A 
 4763      6500
 4764              	.LASF99:
 4765 0a15 4359424C 		.ascii	"CYBLE_ERROR_L2CAP_PSM_ALREADY_REGISTERED\000"
 4765      455F4552 
 4765      524F525F 
 4765      4C324341 
 4765      505F5053 
 4766              	.LASF255:
 4767 0a3e 474E5520 		.ascii	"GNU C 4.9.3 20150303 (release) [ARM/embedded-4_9-br"
 4767      4320342E 
 4767      392E3320 
 4767      32303135 
 4767      30333033 
 4768 0a71 616E6368 		.ascii	"anch revision 221220] -mcpu=cortex-m0 -mthumb -g -O"
 4768      20726576 
 4768      6973696F 
 4768      6E203232 
 4768      31323230 
 4769 0aa4 67202D66 		.ascii	"g -ffunction-sections -ffat-lto-objects\000"
 4769      66756E63 
 4769      74696F6E 
 4769      2D736563 
 4769      74696F6E 
 4770              	.LASF169:
 4771 0acc 61747456 		.ascii	"attValueUuid\000"
 4771      616C7565 
 4771      55756964 
 4771      00
 4772              	.LASF253:
ARM GAS  C:\Users\Rafael\AppData\Local\Temp\ccwrXay6.s 			page 119


 4773 0ad9 4379426C 		.ascii	"CyBle_GappEnterDiscoveryMode\000"
 4773      655F4761 
 4773      7070456E 
 4773      74657244 
 4773      6973636F 
 4774              	.LASF36:
 4775 0af6 4359424C 		.ascii	"CYBLE_EVT_GAP_CONNECTION_UPDATE_COMPLETE\000"
 4775      455F4556 
 4775      545F4741 
 4775      505F434F 
 4775      4E4E4543 
 4776              	.LASF241:
 4777 0b1f 6379426C 		.ascii	"cyBle_busyStatus\000"
 4777      655F6275 
 4777      73795374 
 4777      61747573 
 4777      00
 4778              	.LASF216:
 4779 0b30 4379426C 		.ascii	"CyBle_ChangeAdDeviceAddress\000"
 4779      655F4368 
 4779      616E6765 
 4779      41644465 
 4779      76696365 
 4780              	.LASF184:
 4781 0b4c 4359424C 		.ascii	"CYBLE_STATE_INITIALIZING\000"
 4781      455F5354 
 4781      4154455F 
 4781      494E4954 
 4781      49414C49 
 4782              	.LASF76:
 4783 0b65 4359424C 		.ascii	"CYBLE_EVT_L2CAP_CBFC_DISCONN_IND\000"
 4783      455F4556 
 4783      545F4C32 
 4783      4341505F 
 4783      43424643 
 4784              	.LASF205:
 4785 0b86 4379426C 		.ascii	"CyBle_Stop\000"
 4785      655F5374 
 4785      6F7000
 4786              	.LASF28:
 4787 0b91 4359424C 		.ascii	"CYBLE_EVT_GAP_PASSKEY_ENTRY_REQUEST\000"
 4787      455F4556 
 4787      545F4741 
 4787      505F5041 
 4787      53534B45 
 4788              	.LASF133:
 4789 0bb5 4359424C 		.ascii	"CYBLE_STACK_CONFIG_PARAM_T\000"
 4789      455F5354 
 4789      41434B5F 
 4789      434F4E46 
 4789      49475F50 
 4790              	.LASF124:
 4791 0bd0 646C654D 		.ascii	"dleMaxTxCapability\000"
 4791      61785478 
 4791      43617061 
 4791      62696C69 
 4791      747900
ARM GAS  C:\Users\Rafael\AppData\Local\Temp\ccwrXay6.s 			page 120


 4792              	.LASF238:
 4793 0be3 6379426C 		.ascii	"cyBle_flashStorage\000"
 4793      655F666C 
 4793      61736853 
 4793      746F7261 
 4793      676500
 4794              	.LASF6:
 4795 0bf6 6C6F6E67 		.ascii	"long long int\000"
 4795      206C6F6E 
 4795      6720696E 
 4795      7400
 4796              	.LASF156:
 4797 0c04 61647650 		.ascii	"advParam\000"
 4797      6172616D 
 4797      00
 4798              	.LASF100:
 4799 0c0d 4359424C 		.ascii	"CYBLE_ERROR_L2CAP_PSM_NOT_REGISTERED\000"
 4799      455F4552 
 4799      524F525F 
 4799      4C324341 
 4799      505F5053 
 4800              	.LASF90:
 4801 0c32 4359424C 		.ascii	"CYBLE_ERROR_OOB_NOT_AVAILABLE\000"
 4801      455F4552 
 4801      524F525F 
 4801      4F4F425F 
 4801      4E4F545F 
 4802              	.LASF13:
 4803 0c50 646F7562 		.ascii	"double\000"
 4803      6C6500
 4804              	.LASF105:
 4805 0c57 4359424C 		.ascii	"CYBLE_ERROR_DEVICE_ALREADY_EXISTS\000"
 4805      455F4552 
 4805      524F525F 
 4805      44455649 
 4805      43455F41 
 4806              	.LASF82:
 4807 0c79 4359424C 		.ascii	"CYBLE_EVT_PENDING_FLASH_WRITE\000"
 4807      455F4556 
 4807      545F5045 
 4807      4E44494E 
 4807      475F464C 
 4808              	.LASF242:
 4809 0c97 6379426C 		.ascii	"cyBle_advertisingIntervalType\000"
 4809      655F6164 
 4809      76657274 
 4809      6973696E 
 4809      67496E74 
 4810              	.LASF144:
 4811 0cb5 64697265 		.ascii	"directAddrType\000"
 4811      63744164 
 4811      64725479 
 4811      706500
 4812              	.LASF43:
 4813 0cc4 4359424C 		.ascii	"CYBLE_EVT_GAP_ENHANCE_CONN_COMPLETE\000"
 4813      455F4556 
 4813      545F4741 
ARM GAS  C:\Users\Rafael\AppData\Local\Temp\ccwrXay6.s 			page 121


 4813      505F454E 
 4813      48414E43 
 4814              	.LASF102:
 4815 0ce8 4359424C 		.ascii	"CYBLE_ERROR_L2CAP_CHANNEL_NOT_FOUND\000"
 4815      455F4552 
 4815      524F525F 
 4815      4C324341 
 4815      505F4348 
 4816              	.LASF129:
 4817 0d0c 4359424C 		.ascii	"CYBLE_PRIVACY_1_2_CONFIG_PARAM_T\000"
 4817      455F5052 
 4817      49564143 
 4817      595F315F 
 4817      325F434F 
 4818              	.LASF236:
 4819 0d2d 6379426C 		.ascii	"cyBle_gattDB\000"
 4819      655F6761 
 4819      74744442 
 4819      00
 4820              	.LASF93:
 4821 0d3a 4359424C 		.ascii	"CYBLE_ERROR_REPEATED_ATTEMPTS\000"
 4821      455F4552 
 4821      524F525F 
 4821      52455045 
 4821      41544544 
 4822              	.LASF12:
 4823 0d58 666C6F61 		.ascii	"float\000"
 4823      7400
 4824              	.LASF106:
 4825 0d5e 4359424C 		.ascii	"CYBLE_ERROR_FLASH_WRITE_NOT_PERMITED\000"
 4825      455F4552 
 4825      524F525F 
 4825      464C4153 
 4825      485F5752 
 4826              	.LASF69:
 4827 0d83 4359424C 		.ascii	"CYBLE_EVT_GATTS_READ_CHAR_VAL_ACCESS_REQ\000"
 4827      455F4556 
 4827      545F4741 
 4827      5454535F 
 4827      52454144 
 4828              	.LASF209:
 4829 0dac 64656661 		.ascii	"defaultValuesCCCD\000"
 4829      756C7456 
 4829      616C7565 
 4829      73434343 
 4829      4400
 4830              	.LASF126:
 4831 0dbe 646C654E 		.ascii	"dleNumTxBuffer\000"
 4831      756D5478 
 4831      42756666 
 4831      657200
 4832              	.LASF8:
 4833 0dcd 756E7369 		.ascii	"unsigned int\000"
 4833      676E6564 
 4833      20696E74 
 4833      00
 4834              	.LASF132:
ARM GAS  C:\Users\Rafael\AppData\Local\Temp\ccwrXay6.s 			page 122


 4835 0dda 66656174 		.ascii	"feature_mask\000"
 4835      7572655F 
 4835      6D61736B 
 4835      00
 4836              	.LASF61:
 4837 0de7 4359424C 		.ascii	"CYBLE_EVT_GATTS_PREP_WRITE_REQ\000"
 4837      455F4556 
 4837      545F4741 
 4837      5454535F 
 4837      50524550 
 4838              	.LASF174:
 4839 0e06 61747445 		.ascii	"attEndHandle\000"
 4839      6E644861 
 4839      6E646C65 
 4839      00
 4840              	.LASF191:
 4841 0e13 666C6167 		.ascii	"flag\000"
 4841      00
 4842              	.LASF221:
 4843 0e18 4379426C 		.ascii	"CyBle_Set16ByPtr\000"
 4843      655F5365 
 4843      74313642 
 4843      79507472 
 4843      00
 4844              	.LASF98:
 4845 0e29 4359424C 		.ascii	"CYBLE_ERROR_L2CAP_PSM_WRONG_ENCODING\000"
 4845      455F4552 
 4845      524F525F 
 4845      4C324341 
 4845      505F5053 
 4846              	.LASF218:
 4847 0e4e 63686172 		.ascii	"charLen\000"
 4847      4C656E00 
 4848              	.LASF84:
 4849 0e56 4359424C 		.ascii	"CYBLE_EVT_MAX\000"
 4849      455F4556 
 4849      545F4D41 
 4849      5800
 4850              	.LASF37:
 4851 0e64 4359424C 		.ascii	"CYBLE_EVT_GAPC_SCAN_START_STOP\000"
 4851      455F4556 
 4851      545F4741 
 4851      50435F53 
 4851      43414E5F 
 4852              	.LASF246:
 4853 0e83 4379426C 		.ascii	"CyBle_CustomInit\000"
 4853      655F4375 
 4853      73746F6D 
 4853      496E6974 
 4853      00
 4854              	.LASF139:
 4855 0e94 4359424C 		.ascii	"CYBLE_GAPP_ADV_T\000"
 4855      455F4741 
 4855      50505F41 
 4855      44565F54 
 4855      00
 4856              	.LASF58:
ARM GAS  C:\Users\Rafael\AppData\Local\Temp\ccwrXay6.s 			page 123


 4857 0ea5 4359424C 		.ascii	"CYBLE_EVT_GATTS_WRITE_REQ\000"
 4857      455F4556 
 4857      545F4741 
 4857      5454535F 
 4857      57524954 
 4858              	.LASF149:
 4859 0ebf 61647644 		.ascii	"advData\000"
 4859      61746100 
 4860              	.LASF67:
 4861 0ec7 4359424C 		.ascii	"CYBLE_EVT_GATTS_DATA_SIGNED_CMD_REQ\000"
 4861      455F4556 
 4861      545F4741 
 4861      5454535F 
 4861      44415441 
 4862              	.LASF232:
 4863 0eeb 6379426C 		.ascii	"cyBle_scanRspData\000"
 4863      655F7363 
 4863      616E5273 
 4863      70446174 
 4863      6100
 4864              	.LASF29:
 4865 0efd 4359424C 		.ascii	"CYBLE_EVT_GAP_PASSKEY_DISPLAY_REQUEST\000"
 4865      455F4556 
 4865      545F4741 
 4865      505F5041 
 4865      53534B45 
 4866              	.LASF114:
 4867 0f23 4359424C 		.ascii	"CYBLE_ERROR_IND_DISABLED\000"
 4867      455F4552 
 4867      524F525F 
 4867      494E445F 
 4867      44495341 
 4868              	.LASF113:
 4869 0f3c 4359424C 		.ascii	"CYBLE_ERROR_NTF_DISABLED\000"
 4869      455F4552 
 4869      524F525F 
 4869      4E54465F 
 4869      44495341 
 4870              	.LASF55:
 4871 0f55 4359424C 		.ascii	"CYBLE_EVT_GATTC_READ_RSP\000"
 4871      455F4556 
 4871      545F4741 
 4871      5454435F 
 4871      52454144 
 4872              	.LASF135:
 4873 0f6e 4359424C 		.ascii	"CYBLE_GAPP_CONNECTABLE_HIGH_DC_DIRECTED_ADV\000"
 4873      455F4741 
 4873      50505F43 
 4873      4F4E4E45 
 4873      43544142 
 4874              	.LASF75:
 4875 0f9a 4359424C 		.ascii	"CYBLE_EVT_L2CAP_CBFC_CONN_CNF\000"
 4875      455F4556 
 4875      545F4C32 
 4875      4341505F 
 4875      43424643 
 4876              	.LASF202:
ARM GAS  C:\Users\Rafael\AppData\Local\Temp\ccwrXay6.s 			page 124


 4877 0fb8 70726976 		.ascii	"privacyConfigParams\000"
 4877      61637943 
 4877      6F6E6669 
 4877      67506172 
 4877      616D7300 
 4878              	.LASF164:
 4879 0fcc 4359424C 		.ascii	"CYBLE_GATTS_ATT_GEN_VAL_LEN_T\000"
 4879      455F4741 
 4879      5454535F 
 4879      4154545F 
 4879      47454E5F 
 4880              	.LASF18:
 4881 0fea 4359424C 		.ascii	"CYBLE_APP_CB_T\000"
 4881      455F4150 
 4881      505F4342 
 4881      5F5400
 4882              	.LASF157:
 4883 0ff9 61647654 		.ascii	"advTo\000"
 4883      6F00
 4884              	.LASF25:
 4885 0fff 4359424C 		.ascii	"CYBLE_EVT_MEMORY_REQUEST\000"
 4885      455F4556 
 4885      545F4D45 
 4885      4D4F5259 
 4885      5F524551 
 4886              	.LASF220:
 4887 1018 4379426C 		.ascii	"CyBle_Get16ByPtr\000"
 4887      655F4765 
 4887      74313642 
 4887      79507472 
 4887      00
 4888              	.LASF35:
 4889 1029 4359424C 		.ascii	"CYBLE_EVT_GAP_ENCRYPT_CHANGE\000"
 4889      455F4556 
 4889      545F4741 
 4889      505F454E 
 4889      43525950 
 4890              	.LASF49:
 4891 1046 4359424C 		.ascii	"CYBLE_EVT_GATTS_XCNHG_MTU_REQ\000"
 4891      455F4556 
 4891      545F4741 
 4891      5454535F 
 4891      58434E48 
 4892              	.LASF7:
 4893 1064 6C6F6E67 		.ascii	"long long unsigned int\000"
 4893      206C6F6E 
 4893      6720756E 
 4893      7369676E 
 4893      65642069 
 4894              	.LASF21:
 4895 107b 4359424C 		.ascii	"CYBLE_EVT_TIMEOUT\000"
 4895      455F4556 
 4895      545F5449 
 4895      4D454F55 
 4895      5400
 4896              	.LASF208:
 4897 108d 6973466F 		.ascii	"isForceWrite\000"
ARM GAS  C:\Users\Rafael\AppData\Local\Temp\ccwrXay6.s 			page 125


 4897      72636557 
 4897      72697465 
 4897      00
 4898              	.LASF116:
 4899 109a 4359424C 		.ascii	"CYBLE_ERROR_INVALID_STATE\000"
 4899      455F4552 
 4899      524F525F 
 4899      494E5641 
 4899      4C49445F 
 4900              	.LASF78:
 4901 10b4 4359424C 		.ascii	"CYBLE_EVT_L2CAP_CBFC_DATA_READ\000"
 4901      455F4556 
 4901      545F4C32 
 4901      4341505F 
 4901      43424643 
 4902              	.LASF222:
 4903 10d3 76616C75 		.ascii	"value\000"
 4903      6500
 4904              	.LASF175:
 4905 10d9 61747456 		.ascii	"attValue\000"
 4905      616C7565 
 4905      00
 4906              	.LASF224:
 4907 10e2 4379426C 		.ascii	"CyBle_ApplCallback\000"
 4907      655F4170 
 4907      706C4361 
 4907      6C6C6261 
 4907      636B00
 4908              	.LASF110:
 4909 10f5 4359424C 		.ascii	"CYBLE_ERROR_FLASH_WRITE\000"
 4909      455F4552 
 4909      524F525F 
 4909      464C4153 
 4909      485F5752 
 4910              	.LASF120:
 4911 110d 4359424C 		.ascii	"CYBLE_GAP_BD_ADDR_T\000"
 4911      455F4741 
 4911      505F4244 
 4911      5F414444 
 4911      525F5400 
 4912              	.LASF131:
 4913 1121 70726976 		.ascii	"privacyConfig\000"
 4913      61637943 
 4913      6F6E6669 
 4913      6700
 4914              	.LASF162:
 4915 112f 61637475 		.ascii	"actualLength\000"
 4915      616C4C65 
 4915      6E677468 
 4915      00
 4916              	.LASF150:
 4917 113c 61647644 		.ascii	"advDataLen\000"
 4917      6174614C 
 4917      656E00
 4918              	.LASF190:
 4919 1147 64657374 		.ascii	"dest\000"
 4919      00
ARM GAS  C:\Users\Rafael\AppData\Local\Temp\ccwrXay6.s 			page 126


 4920              	.LASF158:
 4921 114c 4359424C 		.ascii	"CYBLE_GAPP_DISC_MODE_INFO_T\000"
 4921      455F4741 
 4921      50505F44 
 4921      4953435F 
 4921      4D4F4445 
 4922              	.LASF234:
 4923 1168 6379426C 		.ascii	"cyBle_pendingFlashWrite\000"
 4923      655F7065 
 4923      6E64696E 
 4923      67466C61 
 4923      73685772 
 4924              	.LASF53:
 4925 1180 4359424C 		.ascii	"CYBLE_EVT_GATTC_FIND_INFO_RSP\000"
 4925      455F4556 
 4925      545F4741 
 4925      5454435F 
 4925      46494E44 
 4926              	.LASF52:
 4927 119e 4359424C 		.ascii	"CYBLE_EVT_GATTC_READ_BY_TYPE_RSP\000"
 4927      455F4556 
 4927      545F4741 
 4927      5454435F 
 4927      52454144 
 4928              	.LASF252:
 4929 11bf 4379426C 		.ascii	"CyBle_GapRemoveDeviceFromWhiteList\000"
 4929      655F4761 
 4929      7052656D 
 4929      6F766544 
 4929      65766963 
 4930              	.LASF206:
 4931 11e2 4379426C 		.ascii	"CyBle_Start\000"
 4931      655F5374 
 4931      61727400 
 4932              	.LASF239:
 4933 11ee 6379426C 		.ascii	"cyBle_state\000"
 4933      655F7374 
 4933      61746500 
 4934              	.LASF201:
 4935 11fa 646C6543 		.ascii	"dleConfigParams\000"
 4935      6F6E6669 
 4935      67506172 
 4935      616D7300 
 4936              	.LASF250:
 4937 120a 6D656D63 		.ascii	"memcmp\000"
 4937      6D7000
 4938              	.LASF59:
 4939 1211 4359424C 		.ascii	"CYBLE_EVT_GATTC_WRITE_RSP\000"
 4939      455F4556 
 4939      545F4741 
 4939      5454435F 
 4939      57524954 
 4940              	.LASF187:
 4941 122b 4359424C 		.ascii	"CYBLE_STATE_DISCONNECTED\000"
 4941      455F5354 
 4941      4154455F 
 4941      44495343 
ARM GAS  C:\Users\Rafael\AppData\Local\Temp\ccwrXay6.s 			page 127


 4941      4F4E4E45 
 4942              	.LASF170:
 4943 1244 4359424C 		.ascii	"CYBLE_GATTS_ATT_VALUE_T\000"
 4943      455F4741 
 4943      5454535F 
 4943      4154545F 
 4943      56414C55 
 4944              	.LASF167:
 4945 125c 4359424C 		.ascii	"CYBLE_GATTS_ATT_PACK_VAL_LEN_T\000"
 4945      455F4741 
 4945      5454535F 
 4945      4154545F 
 4945      5041434B 
 4946              	.LASF32:
 4947 127b 4359424C 		.ascii	"CYBLE_EVT_GAPP_ADVERTISEMENT_START_STOP\000"
 4947      455F4556 
 4947      545F4741 
 4947      50505F41 
 4947      44564552 
 4948              	.LASF154:
 4949 12a3 4359424C 		.ascii	"CYBLE_GAPP_SCAN_RSP_DATA_T\000"
 4949      455F4741 
 4949      50505F53 
 4949      43414E5F 
 4949      5253505F 
 4950              	.LASF163:
 4951 12be 61747447 		.ascii	"attGenericVal\000"
 4951      656E6572 
 4951      69635661 
 4951      6C00
 4952              	.LASF189:
 4953 12cc 6E616D65 		.ascii	"name\000"
 4953      00
 4954              	.LASF9:
 4955 12d1 75696E74 		.ascii	"uint8\000"
 4955      3800
 4956              	.LASF225:
 4957 12d7 6379426C 		.ascii	"cyBle_initVar\000"
 4957      655F696E 
 4957      69745661 
 4957      7200
 4958              	.LASF40:
 4959 12e5 4359424C 		.ascii	"CYBLE_EVT_GAP_KEYPRESS_NOTIFICATION\000"
 4959      455F4556 
 4959      545F4741 
 4959      505F4B45 
 4959      59505245 
 4960              	.LASF240:
 4961 1309 6379426C 		.ascii	"cyBle_connHandle\000"
 4961      655F636F 
 4961      6E6E4861 
 4961      6E646C65 
 4961      00
 4962              	.LASF2:
 4963 131a 73686F72 		.ascii	"short int\000"
 4963      7420696E 
 4963      7400
ARM GAS  C:\Users\Rafael\AppData\Local\Temp\ccwrXay6.s 			page 128


 4964              	.LASF217:
 4965 1324 4379426C 		.ascii	"CyBle_GapSetLocalName\000"
 4965      655F4761 
 4965      70536574 
 4965      4C6F6361 
 4965      6C4E616D 
 4966              	.LASF166:
 4967 133a 61747447 		.ascii	"attGenericValLen\000"
 4967      656E6572 
 4967      69635661 
 4967      6C4C656E 
 4967      00
 4968              	.LASF168:
 4969 134b 61747446 		.ascii	"attFormatValue\000"
 4969      6F726D61 
 4969      7456616C 
 4969      756500
 4970              	.LASF153:
 4971 135a 7363616E 		.ascii	"scanRspDataLen\000"
 4971      52737044 
 4971      6174614C 
 4971      656E00
 4972              	.LASF108:
 4973 1369 4359424C 		.ascii	"CYBLE_ERROR_HARDWARE_FAILURE\000"
 4973      455F4552 
 4973      524F525F 
 4973      48415244 
 4973      57415245 
 4974              	.LASF245:
 4975 1386 4379426C 		.ascii	"CyBle_GattsDbRegister\000"
 4975      655F4761 
 4975      74747344 
 4975      62526567 
 4975      69737465 
 4976              	.LASF46:
 4977 139c 4359424C 		.ascii	"CYBLE_EVT_GATTC_ERROR_RSP\000"
 4977      455F4556 
 4977      545F4741 
 4977      5454435F 
 4977      4552524F 
 4978              	.LASF188:
 4979 13b6 4359424C 		.ascii	"CYBLE_STATE_T\000"
 4979      455F5354 
 4979      4154455F 
 4979      5400
 4980              	.LASF136:
 4981 13c4 4359424C 		.ascii	"CYBLE_GAPP_SCANNABLE_UNDIRECTED_ADV\000"
 4981      455F4741 
 4981      50505F53 
 4981      43414E4E 
 4981      41424C45 
 4982              	.LASF74:
 4983 13e8 4359424C 		.ascii	"CYBLE_EVT_L2CAP_CBFC_CONN_IND\000"
 4983      455F4556 
 4983      545F4C32 
 4983      4341505F 
 4983      43424643 
ARM GAS  C:\Users\Rafael\AppData\Local\Temp\ccwrXay6.s 			page 129


 4984              	.LASF62:
 4985 1406 4359424C 		.ascii	"CYBLE_EVT_GATTS_EXEC_WRITE_REQ\000"
 4985      455F4556 
 4985      545F4741 
 4985      5454535F 
 4985      45584543 
 4986              	.LASF26:
 4987 1425 4359424C 		.ascii	"CYBLE_EVT_GAPC_SCAN_PROGRESS_RESULT\000"
 4987      455F4556 
 4987      545F4741 
 4987      50435F53 
 4987      43414E5F 
 4988              	.LASF180:
 4989 1449 63636364 		.ascii	"cccdCount\000"
 4989      436F756E 
 4989      7400
 4990              	.LASF233:
 4991 1453 6379426C 		.ascii	"cyBle_discoveryModeInfo\000"
 4991      655F6469 
 4991      73636F76 
 4991      6572794D 
 4991      6F646549 
 4992              	.LASF94:
 4993 146b 4359424C 		.ascii	"CYBLE_ERROR_GAP_ROLE\000"
 4993      455F4552 
 4993      524F525F 
 4993      4741505F 
 4993      524F4C45 
 4994              	.LASF226:
 4995 1480 6379426C 		.ascii	"cyBle_stackMemoryRam\000"
 4995      655F7374 
 4995      61636B4D 
 4995      656D6F72 
 4995      7952616D 
 4996              	.LASF118:
 4997 1495 62644164 		.ascii	"bdAddr\000"
 4997      647200
 4998              	.LASF227:
 4999 149c 6379426C 		.ascii	"cyBle_eventHandlerFlag\000"
 4999      655F6576 
 4999      656E7448 
 4999      616E646C 
 4999      6572466C 
 5000              	.LASF207:
 5001 14b3 4379426C 		.ascii	"CyBle_StoreBondingData\000"
 5001      655F5374 
 5001      6F726542 
 5001      6F6E6469 
 5001      6E674461 
 5002              	.LASF91:
 5003 14ca 4359424C 		.ascii	"CYBLE_ERROR_NO_CONNECTION\000"
 5003      455F4552 
 5003      524F525F 
 5003      4E4F5F43 
 5003      4F4E4E45 
 5004              	.LASF259:
 5005 14e4 6D656D63 		.ascii	"memcpy\000"
ARM GAS  C:\Users\Rafael\AppData\Local\Temp\ccwrXay6.s 			page 130


 5005      707900
 5006              	.LASF193:
 5007 14eb 62797465 		.ascii	"byteCounter\000"
 5007      436F756E 
 5007      74657200 
 5008              	.LASF83:
 5009 14f7 4359424C 		.ascii	"CYBLE_EVT_LE_PING_AUTH_TIMEOUT\000"
 5009      455F4556 
 5009      545F4C45 
 5009      5F50494E 
 5009      475F4155 
 5010              	.LASF117:
 5011 1516 4359424C 		.ascii	"CYBLE_API_RESULT_T\000"
 5011      455F4150 
 5011      495F5245 
 5011      53554C54 
 5011      5F5400
 5012              	.LASF237:
 5013 1529 6379426C 		.ascii	"cyBle_attValuesCCCD\000"
 5013      655F6174 
 5013      7456616C 
 5013      75657343 
 5013      43434400 
 5014              	.LASF65:
 5015 153d 4359424C 		.ascii	"CYBLE_EVT_GATTC_HANDLE_VALUE_IND\000"
 5015      455F4556 
 5015      545F4741 
 5015      5454435F 
 5015      48414E44 
 5016              	.LASF97:
 5017 155e 4359424C 		.ascii	"CYBLE_ERROR_SEC_FAILED\000"
 5017      455F4552 
 5017      524F525F 
 5017      5345435F 
 5017      4641494C 
 5018              	.LASF212:
 5019 1575 696E7661 		.ascii	"invalidBdAddr\000"
 5019      6C696442 
 5019      64416464 
 5019      7200
 5020              	.LASF24:
 5021 1583 4359424C 		.ascii	"CYBLE_EVT_STACK_BUSY_STATUS\000"
 5021      455F4556 
 5021      545F5354 
 5021      41434B5F 
 5021      42555359 
 5022              	.LASF38:
 5023 159f 4359424C 		.ascii	"CYBLE_EVT_GAP_KEYINFO_EXCHNGE_CMPLT\000"
 5023      455F4556 
 5023      545F4741 
 5023      505F4B45 
 5023      59494E46 
 5024              	.LASF71:
 5025 15c3 4359424C 		.ascii	"CYBLE_EVT_L2CAP_CONN_PARAM_UPDATE_REQ\000"
 5025      455F4556 
 5025      545F4C32 
 5025      4341505F 
ARM GAS  C:\Users\Rafael\AppData\Local\Temp\ccwrXay6.s 			page 131


 5025      434F4E4E 
 5026              	.LASF231:
 5027 15e9 6379426C 		.ascii	"cyBle_discoveryData\000"
 5027      655F6469 
 5027      73636F76 
 5027      65727944 
 5027      61746100 
 5028              	.LASF3:
 5029 15fd 73686F72 		.ascii	"short unsigned int\000"
 5029      7420756E 
 5029      7369676E 
 5029      65642069 
 5029      6E7400
 5030              	.LASF145:
 5031 1610 64697265 		.ascii	"directAddr\000"
 5031      63744164 
 5031      647200
 5032              	.LASF185:
 5033 161b 4359424C 		.ascii	"CYBLE_STATE_CONNECTED\000"
 5033      455F5354 
 5033      4154455F 
 5033      434F4E4E 
 5033      45435445 
 5034              	.LASF125:
 5035 1631 646C654D 		.ascii	"dleMaxRxCapability\000"
 5035      61785278 
 5035      43617061 
 5035      62696C69 
 5035      747900
 5036              	.LASF146:
 5037 1644 61647643 		.ascii	"advChannelMap\000"
 5037      68616E6E 
 5037      656C4D61 
 5037      7000
 5038              	.LASF134:
 5039 1652 4359424C 		.ascii	"CYBLE_GAPP_CONNECTABLE_UNDIRECTED_ADV\000"
 5039      455F4741 
 5039      50505F43 
 5039      4F4E4E45 
 5039      43544142 
 5040              	.LASF160:
 5041 1678 61747449 		.ascii	"attId\000"
 5041      6400
 5042              	.LASF87:
 5043 167e 4359424C 		.ascii	"CYBLE_ERROR_INVALID_OPERATION\000"
 5043      455F4552 
 5043      524F525F 
 5043      494E5641 
 5043      4C49445F 
 5044              	.LASF192:
 5045 169c 61644C65 		.ascii	"adLength\000"
 5045      6E677468 
 5045      00
 5046              	.LASF23:
 5047 16a5 4359424C 		.ascii	"CYBLE_EVT_HCI_STATUS\000"
 5047      455F4556 
 5047      545F4843 
ARM GAS  C:\Users\Rafael\AppData\Local\Temp\ccwrXay6.s 			page 132


 5047      495F5354 
 5047      41545553 
 5048              	.LASF48:
 5049 16ba 4359424C 		.ascii	"CYBLE_EVT_GATT_DISCONNECT_IND\000"
 5049      455F4556 
 5049      545F4741 
 5049      54545F44 
 5049      4953434F 
 5050              	.LASF81:
 5051 16d8 4359424C 		.ascii	"CYBLE_EVT_L2CAP_CBFC_DATA_WRITE_IND\000"
 5051      455F4556 
 5051      545F4C32 
 5051      4341505F 
 5051      43424643 
 5052              	.LASF70:
 5053 16fc 4359424C 		.ascii	"CYBLE_EVT_GATTC_LONG_PROCEDURE_END\000"
 5053      455F4556 
 5053      545F4741 
 5053      5454435F 
 5053      4C4F4E47 
 5054              	.LASF34:
 5055 171f 4359424C 		.ascii	"CYBLE_EVT_GAP_DEVICE_DISCONNECTED\000"
 5055      455F4556 
 5055      545F4741 
 5055      505F4445 
 5055      56494345 
 5056              	.LASF66:
 5057 1741 4359424C 		.ascii	"CYBLE_EVT_GATTS_HANDLE_VALUE_CNF\000"
 5057      455F4556 
 5057      545F4741 
 5057      5454535F 
 5057      48414E44 
 5058              	.LASF10:
 5059 1762 75696E74 		.ascii	"uint16\000"
 5059      313600
 5060              	.LASF143:
 5061 1769 6F776E41 		.ascii	"ownAddrType\000"
 5061      64647254 
 5061      79706500 
 5062              	.LASF95:
 5063 1775 4359424C 		.ascii	"CYBLE_ERROR_TX_POWER_READ\000"
 5063      455F4552 
 5063      524F525F 
 5063      54585F50 
 5063      4F574552 
 5064              	.LASF141:
 5065 178f 61647649 		.ascii	"advIntvMax\000"
 5065      6E74764D 
 5065      617800
 5066              		.ident	"GCC: (GNU Tools for ARM Embedded Processors) 4.9.3 20150303 (release) [ARM/embedded-4_9-br
