ARM GAS  C:\Users\Rafael\AppData\Local\Temp\cciZnF6b.s 			page 1


   1              		.cpu cortex-m0
   2              		.fpu softvfp
   3              		.eabi_attribute 20, 1
   4              		.eabi_attribute 21, 1
   5              		.eabi_attribute 23, 3
   6              		.eabi_attribute 24, 1
   7              		.eabi_attribute 25, 1
   8              		.eabi_attribute 26, 1
   9              		.eabi_attribute 30, 1
  10              		.eabi_attribute 34, 0
  11              		.eabi_attribute 18, 4
  12              		.code	16
  13              		.file	"main.c"
  14              		.text
  15              	.Ltext0:
  16              		.cfi_sections	.debug_frame
  17              		.section	.text.updateDato,"ax",%progbits
  18              		.align	2
  19              		.global	updateDato
  20              		.code	16
  21              		.thumb_func
  22              		.type	updateDato, %function
  23              	updateDato:
  24              	.LFB37:
  25              		.file 1 ".\\main.c"
   1:.\main.c      **** /* ========================================
   2:.\main.c      ****  *
   3:.\main.c      ****  * Copyright YOUR COMPANY, THE YEAR
   4:.\main.c      ****  * All Rights Reserved
   5:.\main.c      ****  * UNPUBLISHED, LICENSED SOFTWARE.
   6:.\main.c      ****  *
   7:.\main.c      ****  * CONFIDENTIAL AND PROPRIETARY INFORMATION
   8:.\main.c      ****  * WHICH IS THE PROPERTY OF your company.
   9:.\main.c      ****  *
  10:.\main.c      ****  * ========================================
  11:.\main.c      **** */
  12:.\main.c      **** #include <project.h>
  13:.\main.c      **** //#include <stdlib.h>
  14:.\main.c      **** 
  15:.\main.c      **** uint16 Dato;
  16:.\main.c      **** uint8  NotifyAllData;
  17:.\main.c      **** int aVal;
  18:.\main.c      **** int Val;
  19:.\main.c      **** 
  20:.\main.c      **** void updateDato()
  21:.\main.c      **** {
  26              		.loc 1 21 0
  27              		.cfi_startproc
  28 0000 00B5     		push	{lr}
  29              		.cfi_def_cfa_offset 4
  30              		.cfi_offset 14, -4
  31 0002 85B0     		sub	sp, sp, #20
  32              		.cfi_def_cfa_offset 24
  22:.\main.c      ****  
  23:.\main.c      ****     if(CyBle_GetState()!= CYBLE_STATE_CONNECTED)
  33              		.loc 1 23 0
  34 0004 0E4B     		ldr	r3, .L5
ARM GAS  C:\Users\Rafael\AppData\Local\Temp\cciZnF6b.s 			page 2


  35 0006 1B78     		ldrb	r3, [r3]
  36 0008 022B     		cmp	r3, #2
  37 000a 17D1     		bne	.L1
  24:.\main.c      ****     return;
  25:.\main.c      ****     
  26:.\main.c      ****     CYBLE_GATTS_HANDLE_VALUE_NTF_T datoHandle;
  27:.\main.c      ****     
  28:.\main.c      ****     datoHandle.attrHandle=CYBLE_BIOSENSOR_SENSOR_CHAR_HANDLE;
  38              		.loc 1 28 0
  39 000c 01A8     		add	r0, sp, #4
  40 000e 0E33     		add	r3, r3, #14
  41 0010 0381     		strh	r3, [r0, #8]
  29:.\main.c      ****     datoHandle.value.val=(uint8 *) &Dato;
  42              		.loc 1 29 0
  43 0012 0C4B     		ldr	r3, .L5+4
  44 0014 0193     		str	r3, [sp, #4]
  30:.\main.c      ****     datoHandle.value.len=2;
  45              		.loc 1 30 0
  46 0016 0223     		mov	r3, #2
  47 0018 8380     		strh	r3, [r0, #4]
  31:.\main.c      ****     CyBle_GattsWriteAttributeValue(&datoHandle,0,&cyBle_connHandle,0);
  48              		.loc 1 31 0
  49 001a 0021     		mov	r1, #0
  50 001c 0A4A     		ldr	r2, .L5+8
  51 001e 0023     		mov	r3, #0
  52 0020 FFF7FEFF 		bl	CyBle_GattsWriteAttributeValue
  53              	.LVL0:
  32:.\main.c      ****     
  33:.\main.c      ****     if(NotifyAllData)
  54              		.loc 1 33 0
  55 0024 094B     		ldr	r3, .L5+12
  56 0026 1B78     		ldrb	r3, [r3]
  57 0028 002B     		cmp	r3, #0
  58 002a 07D0     		beq	.L1
  34:.\main.c      ****     {
  35:.\main.c      ****     CyBle_GattsNotification(cyBle_connHandle,&datoHandle);
  59              		.loc 1 35 0
  60 002c 064A     		ldr	r2, .L5+8
  61 002e 1378     		ldrb	r3, [r2]
  62 0030 5078     		ldrb	r0, [r2, #1]
  63 0032 0002     		lsl	r0, r0, #8
  64 0034 1843     		orr	r0, r3
  65 0036 01A9     		add	r1, sp, #4
  66 0038 FFF7FEFF 		bl	CyBle_GattsNotification
  67              	.LVL1:
  68              	.L1:
  36:.\main.c      ****     
  37:.\main.c      ****     }
  38:.\main.c      **** }
  69              		.loc 1 38 0
  70 003c 05B0     		add	sp, sp, #20
  71              		@ sp needed
  72 003e 00BD     		pop	{pc}
  73              	.L6:
  74              		.align	2
  75              	.L5:
  76 0040 00000000 		.word	cyBle_state
ARM GAS  C:\Users\Rafael\AppData\Local\Temp\cciZnF6b.s 			page 3


  77 0044 00000000 		.word	Dato
  78 0048 00000000 		.word	cyBle_connHandle
  79 004c 00000000 		.word	NotifyAllData
  80              		.cfi_endproc
  81              	.LFE37:
  82              		.size	updateDato, .-updateDato
  83              		.section	.text.BleCallBack,"ax",%progbits
  84              		.align	2
  85              		.global	BleCallBack
  86              		.code	16
  87              		.thumb_func
  88              		.type	BleCallBack, %function
  89              	BleCallBack:
  90              	.LFB38:
  39:.\main.c      **** 
  40:.\main.c      **** 
  41:.\main.c      **** /**************************************************
  42:.\main.c      **** Function yo handle the BLE stack
  43:.\main.c      **** ***************************************************/
  44:.\main.c      **** void BleCallBack(uint32 event, void* eventParam)
  45:.\main.c      **** {
  91              		.loc 1 45 0
  92              		.cfi_startproc
  93              	.LVL2:
  94 0000 38B5     		push	{r3, r4, r5, lr}
  95              		.cfi_def_cfa_offset 16
  96              		.cfi_offset 3, -16
  97              		.cfi_offset 4, -12
  98              		.cfi_offset 5, -8
  99              		.cfi_offset 14, -4
 100 0002 0C1C     		mov	r4, r1
  46:.\main.c      **** CYBLE_GATTS_WRITE_CMD_REQ_PARAM_T *wrReqParam;
  47:.\main.c      ****     
  48:.\main.c      ****     switch(event)
 101              		.loc 1 48 0
 102 0004 2728     		cmp	r0, #39
 103 0006 14D0     		beq	.L9
 104 0008 02D8     		bhi	.L10
 105 000a 0128     		cmp	r0, #1
 106 000c 05D0     		beq	.L11
 107 000e 2EE0     		b	.L7
 108              	.L10:
 109 0010 2828     		cmp	r0, #40
 110 0012 02D0     		beq	.L11
 111 0014 4C28     		cmp	r0, #76
 112 0016 14D0     		beq	.L12
 113 0018 29E0     		b	.L7
 114              	.L11:
  49:.\main.c      ****     {
  50:.\main.c      ****      case CYBLE_EVT_STACK_ON:
  51:.\main.c      ****      case CYBLE_EVT_GAP_DEVICE_DISCONNECTED:
  52:.\main.c      ****          NotifyAllData=0;
 115              		.loc 1 52 0
 116 001a 0022     		mov	r2, #0
 117 001c 144B     		ldr	r3, .L13
 118 001e 1A70     		strb	r2, [r3]
  53:.\main.c      ****          CyBle_GappStartAdvertisement(CYBLE_ADVERTISING_FAST);
ARM GAS  C:\Users\Rafael\AppData\Local\Temp\cciZnF6b.s 			page 4


 119              		.loc 1 53 0
 120 0020 0020     		mov	r0, #0
 121              	.LVL3:
 122 0022 FFF7FEFF 		bl	CyBle_GappStartAdvertisement
 123              	.LVL4:
  54:.\main.c      ****          pwm_Start();
 124              		.loc 1 54 0
 125 0026 FFF7FEFF 		bl	pwm_Start
 126              	.LVL5:
  55:.\main.c      ****          B_LED_Write(1);
 127              		.loc 1 55 0
 128 002a 0120     		mov	r0, #1
 129 002c FFF7FEFF 		bl	B_LED_Write
 130              	.LVL6:
  56:.\main.c      ****         break;
 131              		.loc 1 56 0
 132 0030 1DE0     		b	.L7
 133              	.LVL7:
 134              	.L9:
  57:.\main.c      ****         
  58:.\main.c      ****      case CYBLE_EVT_GAP_DEVICE_CONNECTED:
  59:.\main.c      ****         updateDato();
 135              		.loc 1 59 0
 136 0032 FFF7FEFF 		bl	updateDato
 137              	.LVL8:
  60:.\main.c      ****         pwm_Stop();
 138              		.loc 1 60 0
 139 0036 FFF7FEFF 		bl	pwm_Stop
 140              	.LVL9:
  61:.\main.c      ****         B_LED_Write(0);
 141              		.loc 1 61 0
 142 003a 0020     		mov	r0, #0
 143 003c FFF7FEFF 		bl	B_LED_Write
 144              	.LVL10:
  62:.\main.c      ****         break;
 145              		.loc 1 62 0
 146 0040 15E0     		b	.L7
 147              	.LVL11:
 148              	.L12:
  63:.\main.c      ****      
  64:.\main.c      ****      case CYBLE_EVT_GATTS_WRITE_REQ:
  65:.\main.c      ****         wrReqParam=(CYBLE_GATTS_WRITE_REQ_PARAM_T *) eventParam;
  66:.\main.c      ****         
  67:.\main.c      ****         if(wrReqParam->handleValPair.attrHandle==CYBLE_BIOSENSOR_SENSOR_CCCD_DESC_HANDLE)
 149              		.loc 1 67 0
 150 0042 8B89     		ldrh	r3, [r1, #12]
 151 0044 122B     		cmp	r3, #18
 152 0046 12D1     		bne	.L7
  68:.\main.c      ****         {
  69:.\main.c      ****          CyBle_GattsWriteAttributeValue(&wrReqParam->handleValPair,0,&cyBle_connHandle,CYBLE_GATT_D
 153              		.loc 1 69 0
 154 0048 081D     		add	r0, r1, #4
 155              	.LVL12:
 156 004a 0A4D     		ldr	r5, .L13+4
 157 004c 0021     		mov	r1, #0
 158              	.LVL13:
 159 004e 2A1C     		mov	r2, r5
ARM GAS  C:\Users\Rafael\AppData\Local\Temp\cciZnF6b.s 			page 5


 160 0050 2E33     		add	r3, r3, #46
 161 0052 FFF7FEFF 		bl	CyBle_GattsWriteAttributeValue
 162              	.LVL14:
  70:.\main.c      ****          NotifyAllData=wrReqParam->handleValPair.value.val[0] & 0x01;
 163              		.loc 1 70 0
 164 0056 6368     		ldr	r3, [r4, #4]
 165 0058 1B78     		ldrb	r3, [r3]
 166 005a 0122     		mov	r2, #1
 167 005c 1340     		and	r3, r2
 168 005e 044A     		ldr	r2, .L13
 169 0060 1370     		strb	r3, [r2]
  71:.\main.c      ****          CyBle_GattsWriteRsp(cyBle_connHandle);
 170              		.loc 1 71 0
 171 0062 2B78     		ldrb	r3, [r5]
 172 0064 6878     		ldrb	r0, [r5, #1]
 173 0066 0002     		lsl	r0, r0, #8
 174 0068 1843     		orr	r0, r3
 175 006a FFF7FEFF 		bl	CyBle_GattsWriteRsp
 176              	.LVL15:
 177              	.L7:
  72:.\main.c      ****         }
  73:.\main.c      ****         
  74:.\main.c      ****         
  75:.\main.c      ****         
  76:.\main.c      ****         break;
  77:.\main.c      ****      
  78:.\main.c      ****         
  79:.\main.c      ****         
  80:.\main.c      ****         default:
  81:.\main.c      ****         break;
  82:.\main.c      ****     }
  83:.\main.c      **** 
  84:.\main.c      **** }
 178              		.loc 1 84 0
 179              		@ sp needed
 180              	.LVL16:
 181 006e 38BD     		pop	{r3, r4, r5, pc}
 182              	.L14:
 183              		.align	2
 184              	.L13:
 185 0070 00000000 		.word	NotifyAllData
 186 0074 00000000 		.word	cyBle_connHandle
 187              		.cfi_endproc
 188              	.LFE38:
 189              		.size	BleCallBack, .-BleCallBack
 190              		.section	.text.main,"ax",%progbits
 191              		.align	2
 192              		.global	main
 193              		.code	16
 194              		.thumb_func
 195              		.type	main, %function
 196              	main:
 197              	.LFB39:
  85:.\main.c      **** 
  86:.\main.c      **** 
  87:.\main.c      **** 
  88:.\main.c      **** int main()
ARM GAS  C:\Users\Rafael\AppData\Local\Temp\cciZnF6b.s 			page 6


  89:.\main.c      **** {
 198              		.loc 1 89 0
 199              		.cfi_startproc
 200 0000 08B5     		push	{r3, lr}
 201              		.cfi_def_cfa_offset 8
 202              		.cfi_offset 3, -8
 203              		.cfi_offset 14, -4
  90:.\main.c      ****     CyGlobalIntEnable; /* Enable global interrupts. */
 204              		.loc 1 90 0
 205              	@ 90 ".\main.c" 1
 206 0002 62B6     		CPSIE   i
 207              	@ 0 "" 2
  91:.\main.c      ****     
  92:.\main.c      ****     /* Place your initialization/startup code here (e.g. MyInst_Start()) */
  93:.\main.c      ****     ADC_Start();
 208              		.loc 1 93 0
 209              		.code	16
 210 0004 FFF7FEFF 		bl	ADC_Start
 211              	.LVL17:
  94:.\main.c      ****     ADC_StartConvert();
 212              		.loc 1 94 0
 213 0008 FFF7FEFF 		bl	ADC_StartConvert
 214              	.LVL18:
  95:.\main.c      ****     
  96:.\main.c      ****     CyBle_Start(BleCallBack);
 215              		.loc 1 96 0
 216 000c 0E48     		ldr	r0, .L17
 217 000e FFF7FEFF 		bl	CyBle_Start
 218              	.LVL19:
 219              	.L16:
  97:.\main.c      ****    
  98:.\main.c      ****     for(;;)
  99:.\main.c      ****     {
 100:.\main.c      ****         /* Place your application code here. */
 101:.\main.c      ****         //CyDelay(2000);
 102:.\main.c      ****         //LED_Write(1);
 103:.\main.c      ****         //CyDelay(1000);
 104:.\main.c      ****         //LED_Write(0);
 105:.\main.c      ****         
 106:.\main.c      ****         Frecuencia_Write(1);
 220              		.loc 1 106 0 discriminator 1
 221 0012 0120     		mov	r0, #1
 222 0014 FFF7FEFF 		bl	Frecuencia_Write
 223              	.LVL20:
 107:.\main.c      ****         CyDelayUs(1);
 224              		.loc 1 107 0 discriminator 1
 225 0018 0120     		mov	r0, #1
 226 001a FFF7FEFF 		bl	CyDelayUs
 227              	.LVL21:
 108:.\main.c      ****         Frecuencia_Write(0);
 228              		.loc 1 108 0 discriminator 1
 229 001e 0020     		mov	r0, #0
 230 0020 FFF7FEFF 		bl	Frecuencia_Write
 231              	.LVL22:
 109:.\main.c      ****         CyDelayUs(1);
 232              		.loc 1 109 0 discriminator 1
 233 0024 0120     		mov	r0, #1
ARM GAS  C:\Users\Rafael\AppData\Local\Temp\cciZnF6b.s 			page 7


 234 0026 FFF7FEFF 		bl	CyDelayUs
 235              	.LVL23:
 110:.\main.c      ****         
 111:.\main.c      ****         aVal = ADC_GetResult16(0);
 236              		.loc 1 111 0 discriminator 1
 237 002a 0020     		mov	r0, #0
 238 002c FFF7FEFF 		bl	ADC_GetResult16
 239              	.LVL24:
 240 0030 064B     		ldr	r3, .L17+4
 241 0032 1860     		str	r0, [r3]
 112:.\main.c      ****         //Val = 318;
 113:.\main.c      ****         Dato=aVal;
 242              		.loc 1 113 0 discriminator 1
 243 0034 064B     		ldr	r3, .L17+8
 244 0036 1880     		strh	r0, [r3]
 114:.\main.c      ****         updateDato();
 245              		.loc 1 114 0 discriminator 1
 246 0038 FFF7FEFF 		bl	updateDato
 247              	.LVL25:
 115:.\main.c      ****         
 116:.\main.c      ****          /* Rutina de BLE */
 117:.\main.c      ****         CyBle_ProcessEvents();
 248              		.loc 1 117 0 discriminator 1
 249 003c FFF7FEFF 		bl	CyBle_ProcessEvents
 250              	.LVL26:
 118:.\main.c      ****         CyBle_EnterLPM(CYBLE_BLESS_DEEPSLEEP);
 251              		.loc 1 118 0 discriminator 1
 252 0040 0320     		mov	r0, #3
 253 0042 FFF7FEFF 		bl	CyBle_EnterLPM
 254              	.LVL27:
 119:.\main.c      ****         
 120:.\main.c      ****     }
 255              		.loc 1 120 0 discriminator 1
 256 0046 E4E7     		b	.L16
 257              	.L18:
 258              		.align	2
 259              	.L17:
 260 0048 00000000 		.word	BleCallBack
 261 004c 00000000 		.word	aVal
 262 0050 00000000 		.word	Dato
 263              		.cfi_endproc
 264              	.LFE39:
 265              		.size	main, .-main
 266              		.comm	Val,4,4
 267              		.comm	aVal,4,4
 268              		.comm	NotifyAllData,1,1
 269              		.comm	Dato,2,2
 270              		.text
 271              	.Letext0:
 272              		.file 2 "Generated_Source\\PSoC4/cytypes.h"
 273              		.file 3 "Generated_Source\\PSoC4/BLE_1_Stack.h"
 274              		.file 4 "Generated_Source\\PSoC4/BLE_1_StackGatt.h"
 275              		.file 5 "Generated_Source\\PSoC4/BLE_1_StackGattServer.h"
 276              		.file 6 "Generated_Source\\PSoC4/BLE_1.h"
 277              		.file 7 "Generated_Source\\PSoC4/BLE_1_eventHandler.h"
 278              		.file 8 "Generated_Source\\PSoC4/BLE_1_StackGattDb.h"
 279              		.file 9 "Generated_Source\\PSoC4/pwm.h"
ARM GAS  C:\Users\Rafael\AppData\Local\Temp\cciZnF6b.s 			page 8


 280              		.file 10 "Generated_Source\\PSoC4/ADC.h"
 281              		.file 11 "Generated_Source\\PSoC4/B_LED.h"
 282              		.file 12 "Generated_Source\\PSoC4/Frecuencia.h"
 283              		.file 13 "Generated_Source\\PSoC4/CyLib.h"